--- src/main/resources/ffx_ps2/ffx/master/jppc/battle/mon/_m009/m009.bin ---
Dingo [1009h]
- Script Code -
0000 w00init:         3C                                               return;
0001 w00main:         D85F00                                           call Common.halt [005Fh]();
0004                  3C                                               return;
0005 w00e02s40t01p27: AE0000 AE0000 D85D70                             call Battle.btlSetBindEffect [705Dh](p1=0 [00h], p2=0 [00h]);
000E                  3C                                               return;
000F w01init:         AE9E00 AE2E01 D8AB70                             Set [70ABh] Self.stat_motion_type [9Eh] = [motion_type_attack_run_01, motion_type_attack_miss, motion_type_attack_return, motion_type_avoid_move, motion_type_move_back_jump] [012Eh];
0018                  AEA300 AE0100 D8AB70                             Set [70ABh] Self.stat_direction_change_effect [A3h] = 1 [01h];
0021                  AEA400 AE0000 D8AB70                             Set [70ABh] Self.stat_direction_fix_flag [A4h] = 0 [00h];
002A                  AE0000 AF0000 D8B270                             Set [70B2h] Self.motion_attack_start_dist [00h] = 30.0 [41F00000h];
0033                  AE0100 AF0100 D8B270                             Set [70B2h] Self.motion_attack_offset [01h] = 0.0 [00h];
003C                  AE0800 AF0100 D8B270                             Set [70B2h] Self.motion_attack_height [08h] = 0.0 [00h];
0045                  AE0200 AF0200 D8B270                             Set [70B2h] Self.motion_move_backjump_dist [02h] = -1.0 [BF800000h];
004E                  AE0300 AF0300 D8B270                             Set [70B2h] Self.motion_run_speed [03h] = 3.0 [40400000h];
0057                  AE0400 AF0400 D8B270                             Set [70B2h] Self.motion_run_speed_return [04h] = 2.5 [40200000h];
0060                  AE0500 AF0100 D8B270                             Set [70B2h] Self.motion_run_speed_v0 [05h] = 0.0 [00h];
0069                  AE0600 AF0500 D8B270                             Set [70B2h] Self.motion_run_speed_acc [06h] = 0.4 [3ECCCCCDh];
0072                  AE0700 AF0600 D8B270                             Set [70B2h] Self.motion_weight [07h] = 60.0 [42700000h];
007B                  AEDA00 AE0600 D8AB70                             Set [70ABh] Self.stat_round [DAh] = 6 [06h];
0084                  AEDB00 AE0600 D8AB70                             Set [70ABh] Self.stat_round_return [DBh] = 6 [06h];
008D                  AEE600 AE2000 D8AB70                             Set [70ABh] Self.stat_attack_inc_speed [E6h] = 32 [20h];
0096                  AEE700 AE2000 D8AB70                             Set [70ABh] Self.stat_attack_dec_speed [E7h] = 32 [20h];
009F                  AEE400 AE0400 D8AB70                             Set [70ABh] Self.stat_idle2_prob [E4h] = 4 [04h];
00A8                  AEEA00 AE3C00 D8AB70                             Set [70ABh] Self.stat_motion_num [EAh] = 60 [3Ch];
00B1                  AE7C00 AE1000 D8AB70                             Set [70ABh] Self.stat_attack_normal_frame [7Ch] = 16 [10h];
00BA                  AE1601 AE1000 D8AB70                             Set [70ABh] Self.stat_attack_near_frame [0116h] = 16 [10h];
00C3                  AE2301 AE0C00 D8AB70                             Set [70ABh] Self.stat_attack_motion_frame [0123h] = 12 [0Ch];
00CC                  AEF3FF AE4F00 AE0300 D81870                      Set [7018h] Self [FFF3h].DeathAnimation [4Fh] = Fiend (Pyrefly dissipation) [03h];
00D8                  3C                                               return;
00D9 w01main:         D85F00                                           call Common.halt [005Fh]();
00DC                  3C                                               return;
00DD w01e02onTurn:    AEF2FF AEECFF B51E70 D70000                      Check (Battle.countChrOverlap [701Eh](group=FrontlineChars [FFF2h], btlChr=AllAeons [FFECh])) else jump to j00 (0117)
00E9                  AEF2FF AE0800 B51E70 D70100                      Check (Battle.countChrOverlap [701Eh](group=FrontlineChars [FFF2h], btlChr=Valefor [08h])) else jump to j01 (00F9)
00F5                  3C                                               return;
00F6                  B00200                                           Jump to j02 (0114)
00F9 j01:             AEF2FF AE0400 AE0000 AE0000 B51070 A00400        Set priv0000 = Battle.findMatchingChr [7010h](group=FrontlineChars [FFF2h], property=isAlive [04h], unused=0 [00h], selector=Any/All [00h]);
010B                  9F0400 AE0040 D80B70                             call Battle.performCommand [700Bh](target=priv0000, command="[Attack]" [4000h]);
0114 j02:             B00300                                           Jump to j03 (0173)
0117 j00:             B5A900 AE0200 18 A00500                          Set priv0004 = Common.GetRandomValue [00A9h]() mod 2 [02h];
0121                  9F0500 AE0000 06 D70400                          Check (priv0004 == 0 [00h]) else jump to j04 (0158)
012B                  AEF2FF AE0400 AE0000 AE0000 D81070               call Battle.findMatchingChr [7010h](group=FrontlineChars [FFF2h], property=isAlive [04h], unused=0 [00h], selector=Any/All [00h]);
013A                  AEF0FF AE0000 AE0000 AE0200 B51070 A00400        Set priv0000 = Battle.findMatchingChr [7010h](group=MatchingGroup [FFF0h], property=HP [00h], unused=0 [00h], selector=Lowest [02h]);
014C                  9F0400 AE9E40 D80B70                             call Battle.performCommand [700Bh](target=priv0000, command="[Attack]" [409Eh]);
0155                  B00500                                           Jump to j05 (0173)
0158 j04:             AEF2FF AE0400 AE0000 AE0000 B51070 A00400        Set priv0000 = Battle.findMatchingChr [7010h](group=FrontlineChars [FFF2h], property=isAlive [04h], unused=0 [00h], selector=Any/All [00h]);
016A                  9F0400 AE9E40 D80B70                             call Battle.performCommand [700Bh](target=priv0000, command="[Attack]" [409Eh]);
0173 j03,j05:         3C                                               return;
0174 w01e03onHit:     B5E070 D70600                                    Check (Battle.isCounterattackAllowed [70E0h]()) else jump to j06 (0257)
017A                  AEF3FF AEA600 B50F70 AE0000 0A D70700            Check ([700Fh] Self [FFF3h].LastDamageTakenHP [A6h] > 0 [00h]) else jump to j07 (0257)
018A                  B52470 A00600                                    Set priv0008 = Battle.CurrentEncounter [7024h];
0190                  9F0600 AD0000 06 D70800                          Check (priv0008 == bsil07_00 [00480000h]) else jump to j08 (01AC)
019A                  AEEFFF B52170 A00000                             Set battleVar0014 = Battle.dereferenceCharacter [7021h](btlChr=LastAttacker [FFEFh]);
01A3                  AE0000 D89770                                    call Battle.runBtlSceneB [7097h](btlScene=0 [00h]);
01A9                  B00900                                           Jump to j09 (0254)
01AC j08:             9F0600 AD0100 06 D70A00                          Check (priv0008 == bsil07_01 [00480001h]) else jump to j0A (01C8)
01B6                  AEEFFF B52170 A00000                             Set battleVar0014 = Battle.dereferenceCharacter [7021h](btlChr=LastAttacker [FFEFh]);
01BF                  AE0000 D89770                                    call Battle.runBtlSceneB [7097h](btlScene=0 [00h]);
01C5                  B00B00                                           Jump to j0B (0254)
01C8 j0A:             9F0600 AD0200 06 D70C00                          Check (priv0008 == bsil07_02 [00480002h]) else jump to j0C (01E4)
01D2                  AEEFFF B52170 A00000                             Set battleVar0014 = Battle.dereferenceCharacter [7021h](btlChr=LastAttacker [FFEFh]);
01DB                  AE0000 D89770                                    call Battle.runBtlSceneB [7097h](btlScene=0 [00h]);
01E1                  B00D00                                           Jump to j0D (0254)
01E4 j0C:             9F0600 AD0300 06 D70E00                          Check (priv0008 == bsil05_00 [00460000h]) else jump to j0E (0200)
01EE                  AEEFFF B52170 A00000                             Set battleVar0014 = Battle.dereferenceCharacter [7021h](btlChr=LastAttacker [FFEFh]);
01F7                  AE0000 D89770                                    call Battle.runBtlSceneB [7097h](btlScene=0 [00h]);
01FD                  B00F00                                           Jump to j0F (0254)
0200 j0E:             9F0600 AD0400 06 D71000                          Check (priv0008 == bsil05_01 [00460001h]) else jump to j10 (021C)
020A                  AEEFFF B52170 A00000                             Set battleVar0014 = Battle.dereferenceCharacter [7021h](btlChr=LastAttacker [FFEFh]);
0213                  AE0000 D89770                                    call Battle.runBtlSceneB [7097h](btlScene=0 [00h]);
0219                  B01100                                           Jump to j11 (0254)
021C j10:             9F0600 AD0500 06 D71200                          Check (priv0008 == bsil05_02 [00460002h]) else jump to j12 (0238)
0226                  AEEFFF B52170 A00000                             Set battleVar0014 = Battle.dereferenceCharacter [7021h](btlChr=LastAttacker [FFEFh]);
022F                  AE0000 D89770                                    call Battle.runBtlSceneB [7097h](btlScene=0 [00h]);
0235                  B01300                                           Jump to j13 (0254)
0238 j12:             9F0600 AD0600 06 D71400                          Check (priv0008 == bsil05_03 [00460003h]) else jump to j14 (0254)
0242                  AEEFFF B52170 A00000                             Set battleVar0014 = Battle.dereferenceCharacter [7021h](btlChr=LastAttacker [FFEFh]);
024B                  AE0000 D89770                                    call Battle.runBtlSceneB [7097h](btlScene=0 [00h]);
0251                  B01500                                           Jump to j15 (0254)
0254 j09,j0B,j0D,j0F,j11,j13,j14,j15: B01600                           Jump to j16 (0257)
0257 j06,j07,j16:     3C                                               return;
0258 w01e04preTurn:   3C                                               return;
0259 w01e05onTargeted: 3C                                              return;
025A w01e06onDeath:   3C                                               return;
025B w02init:         3C                                               return;
025C w02main:         D85F00                                           call Common.halt [005Fh]();
025F                  3C                                               return;
0260 w02e02?BattleCam1A: D81660                                        call Camera.camResetMove [6016h]();
0263                  D83460                                           call Camera.refResetMove [6034h]();
0266                  AEEDFF AEFDFF B51E70 19 D70000                   Check (!Battle.countChrOverlap [701Eh](group=CHR_ALL_PLY2 [FFEDh], btlChr=TargetChrs [FFFDh])) else jump to j00 (027D)
0273                  AE0100 AE1C00 D83F70                             call Battle.camReq [703Fh](p1=1 [01h], p2=28 [1Ch]);
027C                  3C                                               return;
027D j00:             AEFEFF B57A70 AE0100 06 D70100                   Check (Battle.btlGetCalcResult [707Ah](btlChr=ActiveChrs [FFFEh]) == 1 [01h]) else jump to j01 (0294)
028A                  AE0100 AE1C00 D83F70                             call Battle.camReq [703Fh](p1=1 [01h], p2=28 [1Ch]);
0293                  3C                                               return;
0294 j01:             AEFEFF B5B070 A00100                             Set battleVar0094 = Battle.btlDistTargetFrame2 [70B0h](p1=-2 [FFFEh]);
029D j02:             AE0000 B58060 AE0300 18 59                       Set tmpI0 = Camera.camRand [6080h](p1=0 [00h]) mod 3 [03h];
02A8                  67 9F0200 06 D60200                              (tmpI0 == battleVar00F4) -> j02 (029D)
02B0                  67 A00200                                        Set battleVar00F4 = tmpI0;
02B4                  9F0200 2C                                        switch battleVar00F4
02B8                  B00300                                           Jump to j03 (04D7)
02BB j05:             AEFEFF AEF2FF B51E70 D70600                      Check (Battle.countChrOverlap [701Eh](group=ActiveChrs [FFFEh], btlChr=FrontlineChars [FFF2h])) else jump to j06 (02D3)
02C7                  AEFEFF B5A170 A00300                             Set battleVar0288 = Battle.dereferenceEnemy [70A1h](btlChr=ActiveChrs [FFFEh]);
02D0                  B00700                                           Jump to j07 (02DC)
02D3 j06:             AEFDFF B5A170 A00300                             Set battleVar0288 = Battle.dereferenceEnemy [70A1h](btlChr=TargetChrs [FFFDh]);
02DC j07:             9F0300 2C                                        switch battleVar0288
02E0                  B00800                                           Jump to j08 (02FE)
02E3 j0A:             AEF9FF AED800 AE0000 D81870                      Set [7018h] Character#2 [FFF9h].stat_visible_cam [D8h] = 0 [00h];
02EF j0B:             AEFAFF AED800 AE0000 D81870                      Set [7018h] Character#1 [FFFAh].stat_visible_cam [D8h] = 0 [00h];
02FB                  B00900                                           Jump to j09 (030E)
02FE j08:             AEF8FF 29 06 D60A00                              (Character#3 [FFF8h] == case) -> j0A (02E3)
0306                  AEF9FF 29 06 D60B00                              (Character#2 [FFF9h] == case) -> j0B (02EF)
030E j09:             B52470 2C                                        switch Battle.CurrentEncounter [7024h]
0312                  B00C00                                           Jump to j0C (03D5)
0315 j0E,j0F,j10,j11,j12,j13,j14,j15,j16,j17,j18: B00D00               Jump to j0D (0430)
0318 j19:             AEFEFF AEF1FF B51E70 D71A00                      Check (Battle.countChrOverlap [701Eh](group=ActiveChrs [FFFEh], btlChr=AllMonsters [FFF1h])) else jump to j1A (0330)
0324                  AEFEFF B5A170 A00300                             Set battleVar0288 = Battle.dereferenceEnemy [70A1h](btlChr=ActiveChrs [FFFEh]);
032D                  B01B00                                           Jump to j1B (0339)
0330 j1A:             AEFDFF B5A170 A00300                             Set battleVar0288 = Battle.dereferenceEnemy [70A1h](btlChr=TargetChrs [FFFDh]);
0339 j1B:             9F0300 B52170 2C                                 switch Battle.dereferenceCharacter [7021h](btlChr=battleVar0288)
0340                  B01C00                                           Jump to j1C (038F)
0343 j1E,j1F,j20,j21,j22,j23,j24,j25: B01D00                           Jump to j1D (03D2)
0346 j26:             9F0300 2C                                        switch battleVar0288
034A                  B02700                                           Jump to j27 (0374)
034D j29:             AE1600 AED800 AE0000 D81870                      Set [7018h] Monster#02 [16h].stat_visible_cam [D8h] = 0 [00h];
0359 j2A:             AE1500 AED800 AE0000 D81870                      Set [7018h] Monster#01 [15h].stat_visible_cam [D8h] = 0 [00h];
0365 j2B:             AE1400 AED800 AE0000 D81870                      Set [7018h] Monster#00 [14h].stat_visible_cam [D8h] = 0 [00h];
0371                  B02800                                           Jump to j28 (038C)
0374 j27:             AE1700 29 06 D62900                              (Monster#03 [17h] == case) -> j29 (034D)
037C                  AE1600 29 06 D62A00                              (Monster#02 [16h] == case) -> j2A (0359)
0384                  AE1500 29 06 D62B00                              (Monster#01 [15h] == case) -> j2B (0365)
038C j28:             B01D00                                           Jump to j1D (03D2)
038F j1C:             AE7510 29 06 D61E00                              (Actors:MonsterType=m117 (Sinspawn Gui) [1075h] == case) -> j1E (0343)
0397                  AEA010 29 06 D61F00                              (Actors:MonsterType=m160 (Head) [10A0h] == case) -> j1F (0343)
039F                  AEA110 29 06 D62000                              (Actors:MonsterType=m161 (Arm) [10A1h] == case) -> j20 (0343)
03A7                  AE1811 29 06 D62100                              (Actors:MonsterType=m280 (Ultima Buster) [1118h] == case) -> j21 (0343)
03AF                  AE1011 29 06 D62200                              (Actors:MonsterType=m272 (Head) [1110h] == case) -> j22 (0343)
03B7                  AE1111 29 06 D62300                              (Actors:MonsterType=m273 (Arm) [1111h] == case) -> j23 (0343)
03BF                  AECA10 29 06 D62400                              (Actors:MonsterType=m202 (Magic Urn) [10CAh] == case) -> j24 (0343)
03C7                  AEFF10 29 06 D62500                              (Actors:MonsterType=m255 (Magic Urn) [10FFh] == case) -> j25 (0343)
03CF                  B02600                                           Jump to j26 (0346)
03D2 j1D:             B00D00                                           Jump to j0D (0430)
03D5 j0C:             AD0700 29 06 D60E00                              (kino02_00 [00DE0000h] == case) -> j0E (0315)
03DD                  AD0800 29 06 D60F00                              (kino03_10 [00DF000Ah] == case) -> j0F (0315)
03E5                  AD0900 29 06 D61000                              (stbv01_10 [0196000Ah] == case) -> j10 (0315)
03ED                  AD0A00 29 06 D61100                              (mtgz02_00 [01E70000h] == case) -> j11 (0315)
03F5                  AD0B00 29 06 D61200                              (klyt01_00 [00840000h] == case) -> j12 (0315)
03FD                  AD0C00 29 06 D61300                              (dome02_00 [02050000h] == case) -> j13 (0315)
0405                  AD0D00 29 06 D61400                              (stbv00_10 [0195000Ah] == case) -> j14 (0315)
040D                  AD0E00 29 06 D61500                              (stbv00_11 [0195000Bh] == case) -> j15 (0315)
0415                  AD0F00 29 06 D61600                              (ssbt00_00 [02350000h] == case) -> j16 (0315)
041D                  AD1000 29 06 D61700                              (ssbt01_00 [02360000h] == case) -> j17 (0315)
0425                  AD1100 29 06 D61800                              (ssbt03_00 [02380000h] == case) -> j18 (0315)
042D                  B01900                                           Jump to j19 (0318)
0430 j0D:             AEFEFF AEFFFF AF0700 AF0800 AF0100 AF0900 D84160 call Camera.refSetBtlPolar [6041h](p1=-2 [FFFEh], p2=-1 [FFFFh], p3=74.00002 [42940003h], p4=19.999992 [419FFFFCh], p5=0.0 [00h], p6=-100.00015 [C2C80014h]);
0445                  AEFEFF AEFFFF AF0A00 AF0C00 AF0100 AF0B00 D84460 call Camera.camSetBtlPolar2 [6044h](p1=-2 [FFFEh], p2=-1 [FFFFh], p3=11.999998 [413FFFFEh], p4=-99.0 [C2C60000h], p5=0.0 [00h], p6=207.99998 [434FFFFFh]);
045A                  AF0100 D83A60                                    call Camera.camSetRoll [603Ah](p1=0.0 [00h]);
0460                  AF0D00 D83B60                                    call Camera.camSetScrDpt [603Bh](p1=550.0 [44098000h]);
0466                  9F0100 D80000                                    call Common.wait [0000h](frames=battleVar0094);
046C                  AE1400 D80000                                    call Common.wait [0000h](frames=20 [14h]);
0472                  D81660                                           call Camera.camResetMove [6016h]();
0475                  D83460                                           call Camera.refResetMove [6034h]();
0478                  3C                                               return;
0479 j2C:             AEFEFF AEFFFF AF0E00 AF0800 AF0100 AF0F00 D84160 call Camera.refSetBtlPolar [6041h](p1=-2 [FFFEh], p2=-1 [FFFFh], p3=95.000046 [42BE0006h], p4=19.999992 [419FFFFCh], p5=0.0 [00h], p6=-1.33E-4 [B90B75EAh]);
048E                  AEFEFF AEFFFF AF1000 AF1100 AF0100 AF1200 D84460 call Camera.camSetBtlPolar2 [6044h](p1=-2 [FFFEh], p2=-1 [FFFFh], p3=119.99999 [42EFFFFFh], p4=18.999977 [4197FFF4h], p5=0.0 [00h], p6=179.0 [43330000h]);
04A3                  AF0100 D83A60                                    call Camera.camSetRoll [603Ah](p1=0.0 [00h]);
04A9                  AF1300 D83B60                                    call Camera.camSetScrDpt [603Bh](p1=824.0 [444E0000h]);
04AF                  9F0100 AE0400 17 AE0300 16 D80000                call Common.wait [0000h](frames=(battleVar0094 / 4 [04h]) * 3 [03h]);
04BD                  D81660                                           call Camera.camResetMove [6016h]();
04C0                  AE1400 D80000                                    call Common.wait [0000h](frames=20 [14h]);
04C6                  D83460                                           call Camera.refResetMove [6034h]();
04C9                  3C                                               return;
04CA j2D,j2E:         AE0100 AE1C00 D83F70                             call Battle.camReq [703Fh](p1=1 [01h], p2=28 [1Ch]);
04D3                  3C                                               return;
04D4                  B00400                                           Jump to j04 (04F7)
04D7 j03:             AE0000 29 06 D60500                              (0 [00h] == case) -> j05 (02BB)
04DF                  AE0100 29 06 D62C00                              (1 [01h] == case) -> j2C (0479)
04E7                  AE0200 29 06 D62D00                              (2 [02h] == case) -> j2D (04CA)
04EF                  AE0300 29 06 D62E00                              (3 [03h] == case) -> j2E (04CA)
04F7 j04:             3C                                               return;
- Script Workers -
Script Code Start Address: 01BC
Creator: keisuke
3 Workers Total
w00: { Battle, Type=MotionHandler [01h], PurposeSlot=battleWorkerSlot:64 [40h], Entrypoints=3 [03h], Jumps=0 [00h], privateData addr=0000 len=00 }
w01: { Battle, Type=CombatHandler [02h], PurposeSlot=MonsterAi [3Dh], Entrypoints=7 [07h], Jumps=23 [17h], privateData addr=0000 len=0C }
w02: { Battle, Type=CameraHandler [00h], PurposeSlot=?BattleCameras [00h], Entrypoints=3 [03h], Jumps=47 [2Fh], privateData addr=0000 len=00 }
Variables (7 at offset 00EC)
Variable 00: battleVar0014 { battleVars[0014], type=btlChr (int32) } [0000000152000014h]
Variable 01: battleVar0094 { battleVars[0094], type=int (int32) } [0000000152000094h]
Variable 02: battleVar00F4 { battleVars[00F4], type=int (int32) } [00000001520000F4h]
Variable 03: battleVar0288 { battleVars[0288], type=btlChr (int32) } [0000000152000288h]
Variable 04: priv+0000 { private[0000], type=btlChr (int32) } [0000000156000000h]
Variable 05: priv+0004 { private[0004], type=int (int32) } [0000000156000004h]
Variable 06: priv+0008 { private[0008], type=encounter (int32) } [0000000156000008h]
- Monster Stats -
HP=125 MP=10 Overkill=188
STR=13 DEF=0 MAG=0 MDF=120
AGI=10 LCK=15 EVA=5 ACC=0
Element Affinities: Weak=[Fire]
Status Resists: Sleep/Silence/Darkness (20%), Auto-Life (Immune)
Threaten Base Chance=100%
Poison Damage=25%
Ability List: [Attack] [409Eh]
Forced Action: [Attack] [4000h]
Doom Counter=1
CTB Icon Type=Monster [14h]
Captured Monster Index=8 [08h]
Model/Motion Base=mon/m010 (Wolf) [100Ah]
Sound Bank=m009 (Dingo) [1009h]
- Monster Loot -
Gil=16
AP Normal=2 Overkill=4
No Ronso Rage
Primary Item Drop: Chance=255/255
 COMMON Normal 1x Power Sphere [2046h]; Overkill 2x Power Sphere [2046h]
   RARE Normal 1x Power Sphere [2046h]; Overkill 2x Power Sphere [2046h]
Secondary Item Drop: Chance=0/255
Steal Item: Chance=255/255
 COMMON 1x Potion [2000h]
   RARE 1x Sleeping Powder [2025h]
Bribe Baseline: 4x Sleeping Powder [2025h]
Gear Drop: Chance=12/255
 Formula=1, Power=16, Crit=3%, Slots=0.25-2.0 [05h], Ability Rolls=1.125-2.0 [0Dh]
 Weapon AK: Piercing [800Bh] (Forced), Icestrike [8022h] (1/7), Lightningstrike [8026h] (1/7), Waterstrike [802Ah] (1/7), Distill Power [807Ch] (3/7), Firestrike [801Eh] (1/7)
        TYWLR: Icestrike [8022h] (1/7), Lightningstrike [8026h] (1/7), Waterstrike [802Ah] (1/7), Distill Power [807Ch] (3/7), Firestrike [801Eh] (1/7)
 Armor  TYAKWLR: Sleep Ward [8041h] (3/7), Silence Ward [8045h] (2/7), Magic Def +3% [806Eh] (2/7)
Zanmato Level: 1
Stolen Gil: Up to 100
Monster Arena Price (Unused): 24
- Localized Strings -
Name: Dingo
- Sensor Text -
Very nimble. Resistant to magic.
- Scan Text -
Very nimble and hard to hit.{\n}Magic defense is also high.{\n}Try to defeat it quickly to{\n}avoid damage.{\n}Attack swiftly with {PC:00:TIDUS}.

--- src/main/resources/ffx_ps2/ffx/master/jppc/battle/mon/_m010/m010.bin ---
Mi’ihen Fang [100Ah]
- Script Code -
0000 w00init:         3C                                               return;
0001 w00main:         D85F00                                           call Common.halt [005Fh]();
0004                  3C                                               return;
0005 w00e02s40t01p27: AE0000 AE0000 D85D70                             call Battle.btlSetBindEffect [705Dh](p1=0 [00h], p2=0 [00h]);
000E                  3C                                               return;
000F w01init:         AE9E00 AE2E01 D8AB70                             Set [70ABh] Self.stat_motion_type [9Eh] = [motion_type_attack_run_01, motion_type_attack_miss, motion_type_attack_return, motion_type_avoid_move, motion_type_move_back_jump] [012Eh];
0018                  AEA300 AE0100 D8AB70                             Set [70ABh] Self.stat_direction_change_effect [A3h] = 1 [01h];
0021                  AEA400 AE0000 D8AB70                             Set [70ABh] Self.stat_direction_fix_flag [A4h] = 0 [00h];
002A                  AE0000 AF0000 D8B270                             Set [70B2h] Self.motion_attack_start_dist [00h] = 30.0 [41F00000h];
0033                  AE0100 AF0100 D8B270                             Set [70B2h] Self.motion_attack_offset [01h] = 0.0 [00h];
003C                  AE0800 AF0100 D8B270                             Set [70B2h] Self.motion_attack_height [08h] = 0.0 [00h];
0045                  AE0200 AF0200 D8B270                             Set [70B2h] Self.motion_move_backjump_dist [02h] = -1.0 [BF800000h];
004E                  AE0300 AF0300 D8B270                             Set [70B2h] Self.motion_run_speed [03h] = 3.0 [40400000h];
0057                  AE0400 AF0400 D8B270                             Set [70B2h] Self.motion_run_speed_return [04h] = 2.5 [40200000h];
0060                  AE0500 AF0100 D8B270                             Set [70B2h] Self.motion_run_speed_v0 [05h] = 0.0 [00h];
0069                  AE0600 AF0500 D8B270                             Set [70B2h] Self.motion_run_speed_acc [06h] = 0.4 [3ECCCCCDh];
0072                  AE0700 AF0600 D8B270                             Set [70B2h] Self.motion_weight [07h] = 60.0 [42700000h];
007B                  AEDA00 AE0600 D8AB70                             Set [70ABh] Self.stat_round [DAh] = 6 [06h];
0084                  AEDB00 AE0600 D8AB70                             Set [70ABh] Self.stat_round_return [DBh] = 6 [06h];
008D                  AEE600 AE2000 D8AB70                             Set [70ABh] Self.stat_attack_inc_speed [E6h] = 32 [20h];
0096                  AEE700 AE2000 D8AB70                             Set [70ABh] Self.stat_attack_dec_speed [E7h] = 32 [20h];
009F                  AEE400 AE0400 D8AB70                             Set [70ABh] Self.stat_idle2_prob [E4h] = 4 [04h];
00A8                  AEEA00 AE3C00 D8AB70                             Set [70ABh] Self.stat_motion_num [EAh] = 60 [3Ch];
00B1                  AE7C00 AE1000 D8AB70                             Set [70ABh] Self.stat_attack_normal_frame [7Ch] = 16 [10h];
00BA                  AE1601 AE1000 D8AB70                             Set [70ABh] Self.stat_attack_near_frame [0116h] = 16 [10h];
00C3                  AE2301 AE0C00 D8AB70                             Set [70ABh] Self.stat_attack_motion_frame [0123h] = 12 [0Ch];
00CC                  AEF3FF AE4F00 AE0300 D81870                      Set [7018h] Self [FFF3h].DeathAnimation [4Fh] = Fiend (Pyrefly dissipation) [03h];
00D8                  3C                                               return;
00D9 w01main:         D85F00                                           call Common.halt [005Fh]();
00DC                  3C                                               return;
00DD w01e02onTurn:    AEF2FF AEECFF B51E70 D70000                      Check (Battle.countChrOverlap [701Eh](group=FrontlineChars [FFF2h], btlChr=AllAeons [FFECh])) else jump to j00 (0117)
00E9                  AEF2FF AE0800 B51E70 D70100                      Check (Battle.countChrOverlap [701Eh](group=FrontlineChars [FFF2h], btlChr=Valefor [08h])) else jump to j01 (00F9)
00F5                  3C                                               return;
00F6                  B00200                                           Jump to j02 (0114)
00F9 j01:             AEF2FF AE0400 AE0000 AE0000 B51070 A00300        Set priv0000 = Battle.findMatchingChr [7010h](group=FrontlineChars [FFF2h], property=isAlive [04h], unused=0 [00h], selector=Any/All [00h]);
010B                  9F0300 AE0040 D80B70                             call Battle.performCommand [700Bh](target=priv0000, command="[Attack]" [4000h]);
0114 j02:             B00300                                           Jump to j03 (0173)
0117 j00:             B5A900 AE0200 18 A00400                          Set priv0004 = Common.GetRandomValue [00A9h]() mod 2 [02h];
0121                  9F0400 AE0000 06 D70400                          Check (priv0004 == 0 [00h]) else jump to j04 (0158)
012B                  AEF2FF AE0400 AE0000 AE0000 D81070               call Battle.findMatchingChr [7010h](group=FrontlineChars [FFF2h], property=isAlive [04h], unused=0 [00h], selector=Any/All [00h]);
013A                  AEF0FF AE0000 AE0000 AE0200 B51070 A00300        Set priv0000 = Battle.findMatchingChr [7010h](group=MatchingGroup [FFF0h], property=HP [00h], unused=0 [00h], selector=Lowest [02h]);
014C                  9F0300 AE9E40 D80B70                             call Battle.performCommand [700Bh](target=priv0000, command="[Attack]" [409Eh]);
0155                  B00500                                           Jump to j05 (0173)
0158 j04:             AEF2FF AE0400 AE0000 AE0000 B51070 A00300        Set priv0000 = Battle.findMatchingChr [7010h](group=FrontlineChars [FFF2h], property=isAlive [04h], unused=0 [00h], selector=Any/All [00h]);
016A                  9F0300 AE9E40 D80B70                             call Battle.performCommand [700Bh](target=priv0000, command="[Attack]" [409Eh]);
0173 j03,j05:         3C                                               return;
0174 w01e03onHit:     3C                                               return;
0175 w01e04preTurn:   3C                                               return;
0176 w01e05onTargeted: 3C                                              return;
0177 w01e06onDeath:   3C                                               return;
0178 w02init:         3C                                               return;
0179 w02main:         D85F00                                           call Common.halt [005Fh]();
017C                  3C                                               return;
017D w02e02?BattleCam1A: D81660                                        call Camera.camResetMove [6016h]();
0180                  D83460                                           call Camera.refResetMove [6034h]();
0183                  AEEDFF AEFDFF B51E70 19 D70000                   Check (!Battle.countChrOverlap [701Eh](group=CHR_ALL_PLY2 [FFEDh], btlChr=TargetChrs [FFFDh])) else jump to j00 (019A)
0190                  AE0100 AE1C00 D83F70                             call Battle.camReq [703Fh](p1=1 [01h], p2=28 [1Ch]);
0199                  3C                                               return;
019A j00:             AEFEFF B57A70 AE0100 06 D70100                   Check (Battle.btlGetCalcResult [707Ah](btlChr=ActiveChrs [FFFEh]) == 1 [01h]) else jump to j01 (01B1)
01A7                  AE0100 AE1C00 D83F70                             call Battle.camReq [703Fh](p1=1 [01h], p2=28 [1Ch]);
01B0                  3C                                               return;
01B1 j01:             AEFEFF B5B070 A00000                             Set battleVar0094 = Battle.btlDistTargetFrame2 [70B0h](p1=-2 [FFFEh]);
01BA j02:             AE0000 B58060 AE0300 18 59                       Set tmpI0 = Camera.camRand [6080h](p1=0 [00h]) mod 3 [03h];
01C5                  67 9F0100 06 D60200                              (tmpI0 == battleVar00F4) -> j02 (01BA)
01CD                  67 A00100                                        Set battleVar00F4 = tmpI0;
01D1                  9F0100 2C                                        switch battleVar00F4
01D5                  B00300                                           Jump to j03 (03F4)
01D8 j05:             AEFEFF AEF2FF B51E70 D70600                      Check (Battle.countChrOverlap [701Eh](group=ActiveChrs [FFFEh], btlChr=FrontlineChars [FFF2h])) else jump to j06 (01F0)
01E4                  AEFEFF B5A170 A00200                             Set battleVar0288 = Battle.dereferenceEnemy [70A1h](btlChr=ActiveChrs [FFFEh]);
01ED                  B00700                                           Jump to j07 (01F9)
01F0 j06:             AEFDFF B5A170 A00200                             Set battleVar0288 = Battle.dereferenceEnemy [70A1h](btlChr=TargetChrs [FFFDh]);
01F9 j07:             9F0200 2C                                        switch battleVar0288
01FD                  B00800                                           Jump to j08 (021B)
0200 j0A:             AEF9FF AED800 AE0000 D81870                      Set [7018h] Character#2 [FFF9h].stat_visible_cam [D8h] = 0 [00h];
020C j0B:             AEFAFF AED800 AE0000 D81870                      Set [7018h] Character#1 [FFFAh].stat_visible_cam [D8h] = 0 [00h];
0218                  B00900                                           Jump to j09 (022B)
021B j08:             AEF8FF 29 06 D60A00                              (Character#3 [FFF8h] == case) -> j0A (0200)
0223                  AEF9FF 29 06 D60B00                              (Character#2 [FFF9h] == case) -> j0B (020C)
022B j09:             B52470 2C                                        switch Battle.CurrentEncounter [7024h]
022F                  B00C00                                           Jump to j0C (02F2)
0232 j0E,j0F,j10,j11,j12,j13,j14,j15,j16,j17,j18: B00D00               Jump to j0D (034D)
0235 j19:             AEFEFF AEF1FF B51E70 D71A00                      Check (Battle.countChrOverlap [701Eh](group=ActiveChrs [FFFEh], btlChr=AllMonsters [FFF1h])) else jump to j1A (024D)
0241                  AEFEFF B5A170 A00200                             Set battleVar0288 = Battle.dereferenceEnemy [70A1h](btlChr=ActiveChrs [FFFEh]);
024A                  B01B00                                           Jump to j1B (0256)
024D j1A:             AEFDFF B5A170 A00200                             Set battleVar0288 = Battle.dereferenceEnemy [70A1h](btlChr=TargetChrs [FFFDh]);
0256 j1B:             9F0200 B52170 2C                                 switch Battle.dereferenceCharacter [7021h](btlChr=battleVar0288)
025D                  B01C00                                           Jump to j1C (02AC)
0260 j1E,j1F,j20,j21,j22,j23,j24,j25: B01D00                           Jump to j1D (02EF)
0263 j26:             9F0200 2C                                        switch battleVar0288
0267                  B02700                                           Jump to j27 (0291)
026A j29:             AE1600 AED800 AE0000 D81870                      Set [7018h] Monster#02 [16h].stat_visible_cam [D8h] = 0 [00h];
0276 j2A:             AE1500 AED800 AE0000 D81870                      Set [7018h] Monster#01 [15h].stat_visible_cam [D8h] = 0 [00h];
0282 j2B:             AE1400 AED800 AE0000 D81870                      Set [7018h] Monster#00 [14h].stat_visible_cam [D8h] = 0 [00h];
028E                  B02800                                           Jump to j28 (02A9)
0291 j27:             AE1700 29 06 D62900                              (Monster#03 [17h] == case) -> j29 (026A)
0299                  AE1600 29 06 D62A00                              (Monster#02 [16h] == case) -> j2A (0276)
02A1                  AE1500 29 06 D62B00                              (Monster#01 [15h] == case) -> j2B (0282)
02A9 j28:             B01D00                                           Jump to j1D (02EF)
02AC j1C:             AE7510 29 06 D61E00                              (Actors:MonsterType=m117 (Sinspawn Gui) [1075h] == case) -> j1E (0260)
02B4                  AEA010 29 06 D61F00                              (Actors:MonsterType=m160 (Head) [10A0h] == case) -> j1F (0260)
02BC                  AEA110 29 06 D62000                              (Actors:MonsterType=m161 (Arm) [10A1h] == case) -> j20 (0260)
02C4                  AE1811 29 06 D62100                              (Actors:MonsterType=m280 (Ultima Buster) [1118h] == case) -> j21 (0260)
02CC                  AE1011 29 06 D62200                              (Actors:MonsterType=m272 (Head) [1110h] == case) -> j22 (0260)
02D4                  AE1111 29 06 D62300                              (Actors:MonsterType=m273 (Arm) [1111h] == case) -> j23 (0260)
02DC                  AECA10 29 06 D62400                              (Actors:MonsterType=m202 (Magic Urn) [10CAh] == case) -> j24 (0260)
02E4                  AEFF10 29 06 D62500                              (Actors:MonsterType=m255 (Magic Urn) [10FFh] == case) -> j25 (0260)
02EC                  B02600                                           Jump to j26 (0263)
02EF j1D:             B00D00                                           Jump to j0D (034D)
02F2 j0C:             AD0000 29 06 D60E00                              (kino02_00 [00DE0000h] == case) -> j0E (0232)
02FA                  AD0100 29 06 D60F00                              (kino03_10 [00DF000Ah] == case) -> j0F (0232)
0302                  AD0200 29 06 D61000                              (stbv01_10 [0196000Ah] == case) -> j10 (0232)
030A                  AD0300 29 06 D61100                              (mtgz02_00 [01E70000h] == case) -> j11 (0232)
0312                  AD0400 29 06 D61200                              (klyt01_00 [00840000h] == case) -> j12 (0232)
031A                  AD0500 29 06 D61300                              (dome02_00 [02050000h] == case) -> j13 (0232)
0322                  AD0600 29 06 D61400                              (stbv00_10 [0195000Ah] == case) -> j14 (0232)
032A                  AD0700 29 06 D61500                              (stbv00_11 [0195000Bh] == case) -> j15 (0232)
0332                  AD0800 29 06 D61600                              (ssbt00_00 [02350000h] == case) -> j16 (0232)
033A                  AD0900 29 06 D61700                              (ssbt01_00 [02360000h] == case) -> j17 (0232)
0342                  AD0A00 29 06 D61800                              (ssbt03_00 [02380000h] == case) -> j18 (0232)
034A                  B01900                                           Jump to j19 (0235)
034D j0D:             AEFEFF AEFFFF AF0700 AF0800 AF0100 AF0900 D84160 call Camera.refSetBtlPolar [6041h](p1=-2 [FFFEh], p2=-1 [FFFFh], p3=74.00002 [42940003h], p4=19.999992 [419FFFFCh], p5=0.0 [00h], p6=-100.00015 [C2C80014h]);
0362                  AEFEFF AEFFFF AF0A00 AF0C00 AF0100 AF0B00 D84460 call Camera.camSetBtlPolar2 [6044h](p1=-2 [FFFEh], p2=-1 [FFFFh], p3=11.999998 [413FFFFEh], p4=-99.0 [C2C60000h], p5=0.0 [00h], p6=207.99998 [434FFFFFh]);
0377                  AF0100 D83A60                                    call Camera.camSetRoll [603Ah](p1=0.0 [00h]);
037D                  AF0D00 D83B60                                    call Camera.camSetScrDpt [603Bh](p1=550.0 [44098000h]);
0383                  9F0000 D80000                                    call Common.wait [0000h](frames=battleVar0094);
0389                  AE1400 D80000                                    call Common.wait [0000h](frames=20 [14h]);
038F                  D81660                                           call Camera.camResetMove [6016h]();
0392                  D83460                                           call Camera.refResetMove [6034h]();
0395                  3C                                               return;
0396 j2C:             AEFEFF AEFFFF AF0E00 AF0800 AF0100 AF0F00 D84160 call Camera.refSetBtlPolar [6041h](p1=-2 [FFFEh], p2=-1 [FFFFh], p3=95.000046 [42BE0006h], p4=19.999992 [419FFFFCh], p5=0.0 [00h], p6=-1.33E-4 [B90B75EAh]);
03AB                  AEFEFF AEFFFF AF1000 AF1100 AF0100 AF1200 D84460 call Camera.camSetBtlPolar2 [6044h](p1=-2 [FFFEh], p2=-1 [FFFFh], p3=119.99999 [42EFFFFFh], p4=18.999977 [4197FFF4h], p5=0.0 [00h], p6=179.0 [43330000h]);
03C0                  AF0100 D83A60                                    call Camera.camSetRoll [603Ah](p1=0.0 [00h]);
03C6                  AF1300 D83B60                                    call Camera.camSetScrDpt [603Bh](p1=824.0 [444E0000h]);
03CC                  9F0000 AE0400 17 AE0300 16 D80000                call Common.wait [0000h](frames=(battleVar0094 / 4 [04h]) * 3 [03h]);
03DA                  D81660                                           call Camera.camResetMove [6016h]();
03DD                  AE1400 D80000                                    call Common.wait [0000h](frames=20 [14h]);
03E3                  D83460                                           call Camera.refResetMove [6034h]();
03E6                  3C                                               return;
03E7 j2D,j2E:         AE0100 AE1C00 D83F70                             call Battle.camReq [703Fh](p1=1 [01h], p2=28 [1Ch]);
03F0                  3C                                               return;
03F1                  B00400                                           Jump to j04 (0414)
03F4 j03:             AE0000 29 06 D60500                              (0 [00h] == case) -> j05 (01D8)
03FC                  AE0100 29 06 D62C00                              (1 [01h] == case) -> j2C (0396)
0404                  AE0200 29 06 D62D00                              (2 [02h] == case) -> j2D (03E7)
040C                  AE0300 29 06 D62E00                              (3 [03h] == case) -> j2E (03E7)
0414 j04:             3C                                               return;
- Script Workers -
Script Code Start Address: 0190
Creator: keisuke
3 Workers Total
w00: { Battle, Type=MotionHandler [01h], PurposeSlot=battleWorkerSlot:64 [40h], Entrypoints=3 [03h], Jumps=0 [00h], privateData addr=0000 len=00 }
w01: { Battle, Type=CombatHandler [02h], PurposeSlot=MonsterAi [3Dh], Entrypoints=7 [07h], Jumps=6 [06h], privateData addr=0000 len=08 }
w02: { Battle, Type=CameraHandler [00h], PurposeSlot=?BattleCameras [00h], Entrypoints=3 [03h], Jumps=47 [2Fh], privateData addr=0000 len=00 }
Variables (5 at offset 00EC)
Variable 00: battleVar0094 { battleVars[0094], type=int (int32) } [0000000152000094h]
Variable 01: battleVar00F4 { battleVars[00F4], type=int (int32) } [00000001520000F4h]
Variable 02: battleVar0288 { battleVars[0288], type=btlChr (int32) } [0000000152000288h]
Variable 03: priv+0000 { private[0000], type=btlChr (int32) } [0000000156000000h]
Variable 04: priv+0004 { private[0004], type=int (int32) } [0000000156000004h]
- Monster Stats -
HP=160 MP=20 Overkill=240
STR=16 DEF=0 MAG=0 MDF=120
AGI=13 LCK=15 EVA=5 ACC=0
Element Affinities: Weak=[Fire, Water]
Status Resists: Sleep/Silence/Darkness (20%), Auto-Life (Immune)
Threaten Base Chance=100%
Poison Damage=25%
Ability List: [Attack] [409Eh]
Forced Action: [Attack] [4000h]
Doom Counter=1
CTB Icon Type=Monster [14h]
Captured Monster Index=9 [09h]
Model/Motion Base=mon/m010 (Wolf) [100Ah]
Sound Bank=m009 (Dingo) [1009h]
- Monster Loot -
Gil=33
AP Normal=20 Overkill=40
No Ronso Rage
Primary Item Drop: Chance=255/255
 COMMON Normal 1x Power Sphere [2046h]; Overkill 2x Power Sphere [2046h]
   RARE Normal 1x Power Sphere [2046h]; Overkill 2x Power Sphere [2046h]
Secondary Item Drop: Chance=0/255
Steal Item: Chance=255/255
 COMMON 1x Potion [2000h]
   RARE 1x Sleeping Powder [2025h]
Bribe Baseline: 5x Sleeping Powder [2025h]
Gear Drop: Chance=12/255
 Formula=1, Power=16, Crit=3%, Slots=0.75-2.5 [07h], Ability Rolls=1.125-2.0 [0Dh]
 Weapon AK: Piercing [800Bh] (Forced), Icestrike [8022h] (1/7), Lightningstrike [8026h] (1/7), Waterstrike [802Ah] (1/7), Distill Power [807Ch] (3/7), Firestrike [801Eh] (1/7)
        TYWLR: Icestrike [8022h] (1/7), Lightningstrike [8026h] (1/7), Waterstrike [802Ah] (1/7), Distill Power [807Ch] (3/7), Firestrike [801Eh] (1/7)
 Armor  TYAKWLR: Sleep Ward [8041h] (3/7), Silence Ward [8045h] (2/7), Magic Def +3% [806Eh] (2/7)
Zanmato Level: 1
Stolen Gil: Up to 100
Monster Arena Price (Unused): 49
- Localized Strings -
Name: Mi’ihen Fang
- Sensor Text -
Very nimble. Resistant to magic.
- Scan Text -
Very nimble and hard to hit.{\n}Magic defense is also high.{\n}It’s vulnerable to fire- and{\n}water-based attacks, so use{\n}weapons with these elements{\n}to inflict greater damage.

--- src/main/resources/ffx_ps2/ffx/master/jppc/battle/mon/_m011/m011.bin ---
Garm [100Bh]
- Script Code -
0000 w00init:         3C                                               return;
0001 w00main:         D85F00                                           call Common.halt [005Fh]();
0004                  3C                                               return;
0005 w00e02s40t01p27: AE0000 AE0000 D85D70                             call Battle.btlSetBindEffect [705Dh](p1=0 [00h], p2=0 [00h]);
000E                  3C                                               return;
000F w01init:         AE9E00 AE2E01 D8AB70                             Set [70ABh] Self.stat_motion_type [9Eh] = [motion_type_attack_run_01, motion_type_attack_miss, motion_type_attack_return, motion_type_avoid_move, motion_type_move_back_jump] [012Eh];
0018                  AEA300 AE0100 D8AB70                             Set [70ABh] Self.stat_direction_change_effect [A3h] = 1 [01h];
0021                  AEA400 AE0000 D8AB70                             Set [70ABh] Self.stat_direction_fix_flag [A4h] = 0 [00h];
002A                  AE0000 AF0000 D8B270                             Set [70B2h] Self.motion_attack_start_dist [00h] = 30.0 [41F00000h];
0033                  AE0100 AF0100 D8B270                             Set [70B2h] Self.motion_attack_offset [01h] = 0.0 [00h];
003C                  AE0800 AF0100 D8B270                             Set [70B2h] Self.motion_attack_height [08h] = 0.0 [00h];
0045                  AE0200 AF0200 D8B270                             Set [70B2h] Self.motion_move_backjump_dist [02h] = -1.0 [BF800000h];
004E                  AE0300 AF0300 D8B270                             Set [70B2h] Self.motion_run_speed [03h] = 3.0 [40400000h];
0057                  AE0400 AF0400 D8B270                             Set [70B2h] Self.motion_run_speed_return [04h] = 2.5 [40200000h];
0060                  AE0500 AF0100 D8B270                             Set [70B2h] Self.motion_run_speed_v0 [05h] = 0.0 [00h];
0069                  AE0600 AF0500 D8B270                             Set [70B2h] Self.motion_run_speed_acc [06h] = 0.4 [3ECCCCCDh];
0072                  AE0700 AF0600 D8B270                             Set [70B2h] Self.motion_weight [07h] = 60.0 [42700000h];
007B                  AEDA00 AE0600 D8AB70                             Set [70ABh] Self.stat_round [DAh] = 6 [06h];
0084                  AEDB00 AE0600 D8AB70                             Set [70ABh] Self.stat_round_return [DBh] = 6 [06h];
008D                  AEE600 AE2000 D8AB70                             Set [70ABh] Self.stat_attack_inc_speed [E6h] = 32 [20h];
0096                  AEE700 AE2000 D8AB70                             Set [70ABh] Self.stat_attack_dec_speed [E7h] = 32 [20h];
009F                  AEE400 AE0400 D8AB70                             Set [70ABh] Self.stat_idle2_prob [E4h] = 4 [04h];
00A8                  AEEA00 AE3C00 D8AB70                             Set [70ABh] Self.stat_motion_num [EAh] = 60 [3Ch];
00B1                  AE7C00 AE1000 D8AB70                             Set [70ABh] Self.stat_attack_normal_frame [7Ch] = 16 [10h];
00BA                  AE1601 AE1000 D8AB70                             Set [70ABh] Self.stat_attack_near_frame [0116h] = 16 [10h];
00C3                  AE2301 AE0C00 D8AB70                             Set [70ABh] Self.stat_attack_motion_frame [0123h] = 12 [0Ch];
00CC                  AEF3FF AE4F00 AE0300 D81870                      Set [7018h] Self [FFF3h].DeathAnimation [4Fh] = Fiend (Pyrefly dissipation) [03h];
00D8                  3C                                               return;
00D9 w01main:         D85F00                                           call Common.halt [005Fh]();
00DC                  3C                                               return;
00DD w01e02onTurn:    AEF2FF AEECFF B51E70 D70000                      Check (Battle.countChrOverlap [701Eh](group=FrontlineChars [FFF2h], btlChr=AllAeons [FFECh])) else jump to j00 (0117)
00E9                  AEF2FF AE0800 B51E70 D70100                      Check (Battle.countChrOverlap [701Eh](group=FrontlineChars [FFF2h], btlChr=Valefor [08h])) else jump to j01 (00F9)
00F5                  3C                                               return;
00F6                  B00200                                           Jump to j02 (0114)
00F9 j01:             AEF2FF AE0400 AE0000 AE0000 B51070 A00300        Set priv0000 = Battle.findMatchingChr [7010h](group=FrontlineChars [FFF2h], property=isAlive [04h], unused=0 [00h], selector=Any/All [00h]);
010B                  9F0300 AE0040 D80B70                             call Battle.performCommand [700Bh](target=priv0000, command="[Attack]" [4000h]);
0114 j02:             B00300                                           Jump to j03 (0173)
0117 j00:             B5A900 AE0200 18 A00400                          Set priv0004 = Common.GetRandomValue [00A9h]() mod 2 [02h];
0121                  9F0400 AE0000 06 D70400                          Check (priv0004 == 0 [00h]) else jump to j04 (0158)
012B                  AEF2FF AE0400 AE0000 AE0000 D81070               call Battle.findMatchingChr [7010h](group=FrontlineChars [FFF2h], property=isAlive [04h], unused=0 [00h], selector=Any/All [00h]);
013A                  AEF0FF AE0000 AE0000 AE0200 B51070 A00300        Set priv0000 = Battle.findMatchingChr [7010h](group=MatchingGroup [FFF0h], property=HP [00h], unused=0 [00h], selector=Lowest [02h]);
014C                  9F0300 AE9E40 D80B70                             call Battle.performCommand [700Bh](target=priv0000, command="[Attack]" [409Eh]);
0155                  B00500                                           Jump to j05 (0173)
0158 j04:             AEF2FF AE0400 AE0000 AE0000 B51070 A00300        Set priv0000 = Battle.findMatchingChr [7010h](group=FrontlineChars [FFF2h], property=isAlive [04h], unused=0 [00h], selector=Any/All [00h]);
016A                  9F0300 AE9E40 D80B70                             call Battle.performCommand [700Bh](target=priv0000, command="[Attack]" [409Eh]);
0173 j03,j05:         3C                                               return;
0174 w01e03onHit:     3C                                               return;
0175 w01e04preTurn:   3C                                               return;
0176 w01e05onTargeted: 3C                                              return;
0177 w01e06onDeath:   3C                                               return;
0178 w02init:         3C                                               return;
0179 w02main:         D85F00                                           call Common.halt [005Fh]();
017C                  3C                                               return;
017D w02e02?BattleCam1A: D81660                                        call Camera.camResetMove [6016h]();
0180                  D83460                                           call Camera.refResetMove [6034h]();
0183                  AEEDFF AEFDFF B51E70 19 D70000                   Check (!Battle.countChrOverlap [701Eh](group=CHR_ALL_PLY2 [FFEDh], btlChr=TargetChrs [FFFDh])) else jump to j00 (019A)
0190                  AE0100 AE1C00 D83F70                             call Battle.camReq [703Fh](p1=1 [01h], p2=28 [1Ch]);
0199                  3C                                               return;
019A j00:             AEFEFF B57A70 AE0100 06 D70100                   Check (Battle.btlGetCalcResult [707Ah](btlChr=ActiveChrs [FFFEh]) == 1 [01h]) else jump to j01 (01B1)
01A7                  AE0100 AE1C00 D83F70                             call Battle.camReq [703Fh](p1=1 [01h], p2=28 [1Ch]);
01B0                  3C                                               return;
01B1 j01:             AEFEFF B5B070 A00000                             Set battleVar0094 = Battle.btlDistTargetFrame2 [70B0h](p1=-2 [FFFEh]);
01BA j02:             AE0000 B58060 AE0300 18 59                       Set tmpI0 = Camera.camRand [6080h](p1=0 [00h]) mod 3 [03h];
01C5                  67 9F0100 06 D60200                              (tmpI0 == battleVar00F4) -> j02 (01BA)
01CD                  67 A00100                                        Set battleVar00F4 = tmpI0;
01D1                  9F0100 2C                                        switch battleVar00F4
01D5                  B00300                                           Jump to j03 (03F4)
01D8 j05:             AEFEFF AEF2FF B51E70 D70600                      Check (Battle.countChrOverlap [701Eh](group=ActiveChrs [FFFEh], btlChr=FrontlineChars [FFF2h])) else jump to j06 (01F0)
01E4                  AEFEFF B5A170 A00200                             Set battleVar0288 = Battle.dereferenceEnemy [70A1h](btlChr=ActiveChrs [FFFEh]);
01ED                  B00700                                           Jump to j07 (01F9)
01F0 j06:             AEFDFF B5A170 A00200                             Set battleVar0288 = Battle.dereferenceEnemy [70A1h](btlChr=TargetChrs [FFFDh]);
01F9 j07:             9F0200 2C                                        switch battleVar0288
01FD                  B00800                                           Jump to j08 (021B)
0200 j0A:             AEF9FF AED800 AE0000 D81870                      Set [7018h] Character#2 [FFF9h].stat_visible_cam [D8h] = 0 [00h];
020C j0B:             AEFAFF AED800 AE0000 D81870                      Set [7018h] Character#1 [FFFAh].stat_visible_cam [D8h] = 0 [00h];
0218                  B00900                                           Jump to j09 (022B)
021B j08:             AEF8FF 29 06 D60A00                              (Character#3 [FFF8h] == case) -> j0A (0200)
0223                  AEF9FF 29 06 D60B00                              (Character#2 [FFF9h] == case) -> j0B (020C)
022B j09:             B52470 2C                                        switch Battle.CurrentEncounter [7024h]
022F                  B00C00                                           Jump to j0C (02F2)
0232 j0E,j0F,j10,j11,j12,j13,j14,j15,j16,j17,j18: B00D00               Jump to j0D (034D)
0235 j19:             AEFEFF AEF1FF B51E70 D71A00                      Check (Battle.countChrOverlap [701Eh](group=ActiveChrs [FFFEh], btlChr=AllMonsters [FFF1h])) else jump to j1A (024D)
0241                  AEFEFF B5A170 A00200                             Set battleVar0288 = Battle.dereferenceEnemy [70A1h](btlChr=ActiveChrs [FFFEh]);
024A                  B01B00                                           Jump to j1B (0256)
024D j1A:             AEFDFF B5A170 A00200                             Set battleVar0288 = Battle.dereferenceEnemy [70A1h](btlChr=TargetChrs [FFFDh]);
0256 j1B:             9F0200 B52170 2C                                 switch Battle.dereferenceCharacter [7021h](btlChr=battleVar0288)
025D                  B01C00                                           Jump to j1C (02AC)
0260 j1E,j1F,j20,j21,j22,j23,j24,j25: B01D00                           Jump to j1D (02EF)
0263 j26:             9F0200 2C                                        switch battleVar0288
0267                  B02700                                           Jump to j27 (0291)
026A j29:             AE1600 AED800 AE0000 D81870                      Set [7018h] Monster#02 [16h].stat_visible_cam [D8h] = 0 [00h];
0276 j2A:             AE1500 AED800 AE0000 D81870                      Set [7018h] Monster#01 [15h].stat_visible_cam [D8h] = 0 [00h];
0282 j2B:             AE1400 AED800 AE0000 D81870                      Set [7018h] Monster#00 [14h].stat_visible_cam [D8h] = 0 [00h];
028E                  B02800                                           Jump to j28 (02A9)
0291 j27:             AE1700 29 06 D62900                              (Monster#03 [17h] == case) -> j29 (026A)
0299                  AE1600 29 06 D62A00                              (Monster#02 [16h] == case) -> j2A (0276)
02A1                  AE1500 29 06 D62B00                              (Monster#01 [15h] == case) -> j2B (0282)
02A9 j28:             B01D00                                           Jump to j1D (02EF)
02AC j1C:             AE7510 29 06 D61E00                              (Actors:MonsterType=m117 (Sinspawn Gui) [1075h] == case) -> j1E (0260)
02B4                  AEA010 29 06 D61F00                              (Actors:MonsterType=m160 (Head) [10A0h] == case) -> j1F (0260)
02BC                  AEA110 29 06 D62000                              (Actors:MonsterType=m161 (Arm) [10A1h] == case) -> j20 (0260)
02C4                  AE1811 29 06 D62100                              (Actors:MonsterType=m280 (Ultima Buster) [1118h] == case) -> j21 (0260)
02CC                  AE1011 29 06 D62200                              (Actors:MonsterType=m272 (Head) [1110h] == case) -> j22 (0260)
02D4                  AE1111 29 06 D62300                              (Actors:MonsterType=m273 (Arm) [1111h] == case) -> j23 (0260)
02DC                  AECA10 29 06 D62400                              (Actors:MonsterType=m202 (Magic Urn) [10CAh] == case) -> j24 (0260)
02E4                  AEFF10 29 06 D62500                              (Actors:MonsterType=m255 (Magic Urn) [10FFh] == case) -> j25 (0260)
02EC                  B02600                                           Jump to j26 (0263)
02EF j1D:             B00D00                                           Jump to j0D (034D)
02F2 j0C:             AD0000 29 06 D60E00                              (kino02_00 [00DE0000h] == case) -> j0E (0232)
02FA                  AD0100 29 06 D60F00                              (kino03_10 [00DF000Ah] == case) -> j0F (0232)
0302                  AD0200 29 06 D61000                              (stbv01_10 [0196000Ah] == case) -> j10 (0232)
030A                  AD0300 29 06 D61100                              (mtgz02_00 [01E70000h] == case) -> j11 (0232)
0312                  AD0400 29 06 D61200                              (klyt01_00 [00840000h] == case) -> j12 (0232)
031A                  AD0500 29 06 D61300                              (dome02_00 [02050000h] == case) -> j13 (0232)
0322                  AD0600 29 06 D61400                              (stbv00_10 [0195000Ah] == case) -> j14 (0232)
032A                  AD0700 29 06 D61500                              (stbv00_11 [0195000Bh] == case) -> j15 (0232)
0332                  AD0800 29 06 D61600                              (ssbt00_00 [02350000h] == case) -> j16 (0232)
033A                  AD0900 29 06 D61700                              (ssbt01_00 [02360000h] == case) -> j17 (0232)
0342                  AD0A00 29 06 D61800                              (ssbt03_00 [02380000h] == case) -> j18 (0232)
034A                  B01900                                           Jump to j19 (0235)
034D j0D:             AEFEFF AEFFFF AF0700 AF0800 AF0100 AF0900 D84160 call Camera.refSetBtlPolar [6041h](p1=-2 [FFFEh], p2=-1 [FFFFh], p3=74.00002 [42940003h], p4=19.999992 [419FFFFCh], p5=0.0 [00h], p6=-100.00015 [C2C80014h]);
0362                  AEFEFF AEFFFF AF0A00 AF0C00 AF0100 AF0B00 D84460 call Camera.camSetBtlPolar2 [6044h](p1=-2 [FFFEh], p2=-1 [FFFFh], p3=11.999998 [413FFFFEh], p4=-99.0 [C2C60000h], p5=0.0 [00h], p6=207.99998 [434FFFFFh]);
0377                  AF0100 D83A60                                    call Camera.camSetRoll [603Ah](p1=0.0 [00h]);
037D                  AF0D00 D83B60                                    call Camera.camSetScrDpt [603Bh](p1=550.0 [44098000h]);
0383                  9F0000 D80000                                    call Common.wait [0000h](frames=battleVar0094);
0389                  AE1400 D80000                                    call Common.wait [0000h](frames=20 [14h]);
038F                  D81660                                           call Camera.camResetMove [6016h]();
0392                  D83460                                           call Camera.refResetMove [6034h]();
0395                  3C                                               return;
0396 j2C:             AEFEFF AEFFFF AF0E00 AF0800 AF0100 AF0F00 D84160 call Camera.refSetBtlPolar [6041h](p1=-2 [FFFEh], p2=-1 [FFFFh], p3=95.000046 [42BE0006h], p4=19.999992 [419FFFFCh], p5=0.0 [00h], p6=-1.33E-4 [B90B75EAh]);
03AB                  AEFEFF AEFFFF AF1000 AF1100 AF0100 AF1200 D84460 call Camera.camSetBtlPolar2 [6044h](p1=-2 [FFFEh], p2=-1 [FFFFh], p3=119.99999 [42EFFFFFh], p4=18.999977 [4197FFF4h], p5=0.0 [00h], p6=179.0 [43330000h]);
03C0                  AF0100 D83A60                                    call Camera.camSetRoll [603Ah](p1=0.0 [00h]);
03C6                  AF1300 D83B60                                    call Camera.camSetScrDpt [603Bh](p1=824.0 [444E0000h]);
03CC                  9F0000 AE0400 17 AE0300 16 D80000                call Common.wait [0000h](frames=(battleVar0094 / 4 [04h]) * 3 [03h]);
03DA                  D81660                                           call Camera.camResetMove [6016h]();
03DD                  AE1400 D80000                                    call Common.wait [0000h](frames=20 [14h]);
03E3                  D83460                                           call Camera.refResetMove [6034h]();
03E6                  3C                                               return;
03E7 j2D,j2E:         AE0100 AE1C00 D83F70                             call Battle.camReq [703Fh](p1=1 [01h], p2=28 [1Ch]);
03F0                  3C                                               return;
03F1                  B00400                                           Jump to j04 (0414)
03F4 j03:             AE0000 29 06 D60500                              (0 [00h] == case) -> j05 (01D8)
03FC                  AE0100 29 06 D62C00                              (1 [01h] == case) -> j2C (0396)
0404                  AE0200 29 06 D62D00                              (2 [02h] == case) -> j2D (03E7)
040C                  AE0300 29 06 D62E00                              (3 [03h] == case) -> j2E (03E7)
0414 j04:             3C                                               return;
- Script Workers -
Script Code Start Address: 0190
Creator: keisuke
3 Workers Total
w00: { Battle, Type=MotionHandler [01h], PurposeSlot=battleWorkerSlot:64 [40h], Entrypoints=3 [03h], Jumps=0 [00h], privateData addr=0000 len=00 }
w01: { Battle, Type=CombatHandler [02h], PurposeSlot=MonsterAi [3Dh], Entrypoints=7 [07h], Jumps=6 [06h], privateData addr=0000 len=08 }
w02: { Battle, Type=CameraHandler [00h], PurposeSlot=?BattleCameras [00h], Entrypoints=3 [03h], Jumps=47 [2Fh], privateData addr=0000 len=00 }
Variables (5 at offset 00EC)
Variable 00: battleVar0094 { battleVars[0094], type=int (int32) } [0000000152000094h]
Variable 01: battleVar00F4 { battleVars[00F4], type=int (int32) } [00000001520000F4h]
Variable 02: battleVar0288 { battleVars[0288], type=btlChr (int32) } [0000000152000288h]
Variable 03: priv+0000 { private[0000], type=btlChr (int32) } [0000000156000000h]
Variable 04: priv+0004 { private[0004], type=int (int32) } [0000000156000004h]
- Monster Stats -
HP=240 MP=35 Overkill=360
STR=17 DEF=0 MAG=0 MDF=120
AGI=16 LCK=15 EVA=7 ACC=0
Element Affinities: Weak=[Fire, Thunder]
Status Resists: Sleep/Silence/Darkness (20%), Auto-Life (Immune)
Threaten Base Chance=100%
Poison Damage=25%
Ability List: [Attack] [409Eh]
Forced Action: [Attack] [4000h]
Doom Counter=1
CTB Icon Type=Monster [14h]
Captured Monster Index=10 [0Ah]
Model/Motion Base=mon/m010 (Wolf) [100Ah]
Sound Bank=m009 (Dingo) [1009h]
- Monster Loot -
Gil=88
AP Normal=48 Overkill=96
No Ronso Rage
Primary Item Drop: Chance=255/255
 COMMON Normal 1x Power Sphere [2046h]; Overkill 2x Power Sphere [2046h]
   RARE Normal 1x Power Sphere [2046h]; Overkill 2x Power Sphere [2046h]
Secondary Item Drop: Chance=0/255
Steal Item: Chance=255/255
 COMMON 1x Hi-Potion [2001h]
   RARE 1x Sleeping Powder [2025h]
Bribe Baseline: 7x Sleeping Powder [2025h]
Gear Drop: Chance=12/255
 Formula=1, Power=16, Crit=3%, Slots=1.25-3.0 [09h], Ability Rolls=1.125-2.0 [0Dh]
 Weapon AK: Piercing [800Bh] (Forced), Icestrike [8022h] (1/7), Lightningstrike [8026h] (1/7), Waterstrike [802Ah] (1/7), Distill Power [807Ch] (3/7), Firestrike [801Eh] (1/7)
        TYWLR: Icestrike [8022h] (1/7), Lightningstrike [8026h] (1/7), Waterstrike [802Ah] (1/7), Distill Power [807Ch] (3/7), Firestrike [801Eh] (1/7)
 Armor  TYAKWLR: Sleep Ward [8041h] (3/7), Silence Ward [8045h] (3/7), Magic Def +3% [806Eh] (1/7)
Zanmato Level: 1
Stolen Gil: Up to 100
Monster Arena Price (Unused): 132
- Localized Strings -
Name: Garm
- Sensor Text -
Very nimble. Resistant to magic.
- Scan Text -
Very nimble and hard to hit.{\n}Magic defense is also high.{\n}Defeat it quickly to avoid{\n}damage.{\n}It’s vulnerable to lightning{\n}and fire.

--- src/main/resources/ffx_ps2/ffx/master/jppc/battle/mon/_m012/m012.bin ---
Snow Wolf [100Ch]
- Script Code -
0000 w00init:         3C                                               return;
0001 w00main:         D85F00                                           call Common.halt [005Fh]();
0004                  3C                                               return;
0005 w00e02s40t01p27: AE0000 AE0000 D85D70                             call Battle.btlSetBindEffect [705Dh](p1=0 [00h], p2=0 [00h]);
000E                  3C                                               return;
000F w01init:         AE9E00 AE2E01 D8AB70                             Set [70ABh] Self.stat_motion_type [9Eh] = [motion_type_attack_run_01, motion_type_attack_miss, motion_type_attack_return, motion_type_avoid_move, motion_type_move_back_jump] [012Eh];
0018                  AEA300 AE0100 D8AB70                             Set [70ABh] Self.stat_direction_change_effect [A3h] = 1 [01h];
0021                  AEA400 AE0000 D8AB70                             Set [70ABh] Self.stat_direction_fix_flag [A4h] = 0 [00h];
002A                  AE0000 AF0000 D8B270                             Set [70B2h] Self.motion_attack_start_dist [00h] = 30.0 [41F00000h];
0033                  AE0100 AF0100 D8B270                             Set [70B2h] Self.motion_attack_offset [01h] = 0.0 [00h];
003C                  AE0800 AF0100 D8B270                             Set [70B2h] Self.motion_attack_height [08h] = 0.0 [00h];
0045                  AE0200 AF0200 D8B270                             Set [70B2h] Self.motion_move_backjump_dist [02h] = -1.0 [BF800000h];
004E                  AE0300 AF0300 D8B270                             Set [70B2h] Self.motion_run_speed [03h] = 3.0 [40400000h];
0057                  AE0400 AF0400 D8B270                             Set [70B2h] Self.motion_run_speed_return [04h] = 2.5 [40200000h];
0060                  AE0500 AF0100 D8B270                             Set [70B2h] Self.motion_run_speed_v0 [05h] = 0.0 [00h];
0069                  AE0600 AF0500 D8B270                             Set [70B2h] Self.motion_run_speed_acc [06h] = 0.4 [3ECCCCCDh];
0072                  AE0700 AF0600 D8B270                             Set [70B2h] Self.motion_weight [07h] = 60.0 [42700000h];
007B                  AEDA00 AE0600 D8AB70                             Set [70ABh] Self.stat_round [DAh] = 6 [06h];
0084                  AEDB00 AE0600 D8AB70                             Set [70ABh] Self.stat_round_return [DBh] = 6 [06h];
008D                  AEE600 AE2000 D8AB70                             Set [70ABh] Self.stat_attack_inc_speed [E6h] = 32 [20h];
0096                  AEE700 AE2000 D8AB70                             Set [70ABh] Self.stat_attack_dec_speed [E7h] = 32 [20h];
009F                  AEE400 AE0400 D8AB70                             Set [70ABh] Self.stat_idle2_prob [E4h] = 4 [04h];
00A8                  AEEA00 AE3C00 D8AB70                             Set [70ABh] Self.stat_motion_num [EAh] = 60 [3Ch];
00B1                  AE7C00 AE1000 D8AB70                             Set [70ABh] Self.stat_attack_normal_frame [7Ch] = 16 [10h];
00BA                  AE1601 AE1000 D8AB70                             Set [70ABh] Self.stat_attack_near_frame [0116h] = 16 [10h];
00C3                  AE2301 AE0C00 D8AB70                             Set [70ABh] Self.stat_attack_motion_frame [0123h] = 12 [0Ch];
00CC                  AEF3FF AE4F00 AE0300 D81870                      Set [7018h] Self [FFF3h].DeathAnimation [4Fh] = Fiend (Pyrefly dissipation) [03h];
00D8                  B52470 AD0000 06 D70000                          Check (Battle.CurrentEncounter [7024h] == maca03_20 [014D0014h]) else jump to j00 (00EE)
00E2                  AEF3FF AE8600 AE0400 D81870                      Set [7018h] Self [FFF3h].BirthAnimation [86h] = Hidden [04h];
00EE j00:             B52470 AD0100 06 D70100                          Check (Battle.CurrentEncounter [7024h] == mcyt00_20 [01540014h]) else jump to j01 (0104)
00F8                  AEF3FF AE8600 AE0400 D81870                      Set [7018h] Self [FFF3h].BirthAnimation [86h] = Hidden [04h];
0104 j01:             3C                                               return;
0105 w01main:         D85F00                                           call Common.halt [005Fh]();
0108                  3C                                               return;
0109 w01e02onTurn:    AEF2FF AEECFF B51E70 D70200                      Check (Battle.countChrOverlap [701Eh](group=FrontlineChars [FFF2h], btlChr=AllAeons [FFECh])) else jump to j02 (0143)
0115                  AEF2FF AE0800 B51E70 D70300                      Check (Battle.countChrOverlap [701Eh](group=FrontlineChars [FFF2h], btlChr=Valefor [08h])) else jump to j03 (0125)
0121                  3C                                               return;
0122                  B00400                                           Jump to j04 (0140)
0125 j03:             AEF2FF AE0400 AE0000 AE0000 B51070 A00300        Set priv0000 = Battle.findMatchingChr [7010h](group=FrontlineChars [FFF2h], property=isAlive [04h], unused=0 [00h], selector=Any/All [00h]);
0137                  9F0300 AE0040 D80B70                             call Battle.performCommand [700Bh](target=priv0000, command="[Attack]" [4000h]);
0140 j04:             B00500                                           Jump to j05 (019F)
0143 j02:             B5A900 AE0200 18 A00400                          Set priv0004 = Common.GetRandomValue [00A9h]() mod 2 [02h];
014D                  9F0400 AE0000 06 D70600                          Check (priv0004 == 0 [00h]) else jump to j06 (0184)
0157                  AEF2FF AE0400 AE0000 AE0000 D81070               call Battle.findMatchingChr [7010h](group=FrontlineChars [FFF2h], property=isAlive [04h], unused=0 [00h], selector=Any/All [00h]);
0166                  AEF0FF AE0000 AE0000 AE0200 B51070 A00300        Set priv0000 = Battle.findMatchingChr [7010h](group=MatchingGroup [FFF0h], property=HP [00h], unused=0 [00h], selector=Lowest [02h]);
0178                  9F0300 AE9E40 D80B70                             call Battle.performCommand [700Bh](target=priv0000, command="[Attack]" [409Eh]);
0181                  B00700                                           Jump to j07 (019F)
0184 j06:             AEF2FF AE0400 AE0000 AE0000 B51070 A00300        Set priv0000 = Battle.findMatchingChr [7010h](group=FrontlineChars [FFF2h], property=isAlive [04h], unused=0 [00h], selector=Any/All [00h]);
0196                  9F0300 AE9E40 D80B70                             call Battle.performCommand [700Bh](target=priv0000, command="[Attack]" [409Eh]);
019F j05,j07:         3C                                               return;
01A0 w01e03onHit:     3C                                               return;
01A1 w01e04preTurn:   3C                                               return;
01A2 w01e05onTargeted: 3C                                              return;
01A3 w01e06onDeath:   3C                                               return;
01A4 w02init:         3C                                               return;
01A5 w02main:         D85F00                                           call Common.halt [005Fh]();
01A8                  3C                                               return;
01A9 w02e02?BattleCam1A: D81660                                        call Camera.camResetMove [6016h]();
01AC                  D83460                                           call Camera.refResetMove [6034h]();
01AF                  AEEDFF AEFDFF B51E70 19 D70000                   Check (!Battle.countChrOverlap [701Eh](group=CHR_ALL_PLY2 [FFEDh], btlChr=TargetChrs [FFFDh])) else jump to j00 (01C6)
01BC                  AE0100 AE1C00 D83F70                             call Battle.camReq [703Fh](p1=1 [01h], p2=28 [1Ch]);
01C5                  3C                                               return;
01C6 j00:             AEFEFF B57A70 AE0100 06 D70100                   Check (Battle.btlGetCalcResult [707Ah](btlChr=ActiveChrs [FFFEh]) == 1 [01h]) else jump to j01 (01DD)
01D3                  AE0100 AE1C00 D83F70                             call Battle.camReq [703Fh](p1=1 [01h], p2=28 [1Ch]);
01DC                  3C                                               return;
01DD j01:             AEFEFF B5B070 A00000                             Set battleVar0094 = Battle.btlDistTargetFrame2 [70B0h](p1=-2 [FFFEh]);
01E6 j02:             AE0000 B58060 AE0300 18 59                       Set tmpI0 = Camera.camRand [6080h](p1=0 [00h]) mod 3 [03h];
01F1                  67 9F0100 06 D60200                              (tmpI0 == battleVar00F4) -> j02 (01E6)
01F9                  67 A00100                                        Set battleVar00F4 = tmpI0;
01FD                  9F0100 2C                                        switch battleVar00F4
0201                  B00300                                           Jump to j03 (0420)
0204 j05:             AEFEFF AEF2FF B51E70 D70600                      Check (Battle.countChrOverlap [701Eh](group=ActiveChrs [FFFEh], btlChr=FrontlineChars [FFF2h])) else jump to j06 (021C)
0210                  AEFEFF B5A170 A00200                             Set battleVar0288 = Battle.dereferenceEnemy [70A1h](btlChr=ActiveChrs [FFFEh]);
0219                  B00700                                           Jump to j07 (0225)
021C j06:             AEFDFF B5A170 A00200                             Set battleVar0288 = Battle.dereferenceEnemy [70A1h](btlChr=TargetChrs [FFFDh]);
0225 j07:             9F0200 2C                                        switch battleVar0288
0229                  B00800                                           Jump to j08 (0247)
022C j0A:             AEF9FF AED800 AE0000 D81870                      Set [7018h] Character#2 [FFF9h].stat_visible_cam [D8h] = 0 [00h];
0238 j0B:             AEFAFF AED800 AE0000 D81870                      Set [7018h] Character#1 [FFFAh].stat_visible_cam [D8h] = 0 [00h];
0244                  B00900                                           Jump to j09 (0257)
0247 j08:             AEF8FF 29 06 D60A00                              (Character#3 [FFF8h] == case) -> j0A (022C)
024F                  AEF9FF 29 06 D60B00                              (Character#2 [FFF9h] == case) -> j0B (0238)
0257 j09:             B52470 2C                                        switch Battle.CurrentEncounter [7024h]
025B                  B00C00                                           Jump to j0C (031E)
025E j0E,j0F,j10,j11,j12,j13,j14,j15,j16,j17,j18: B00D00               Jump to j0D (0379)
0261 j19:             AEFEFF AEF1FF B51E70 D71A00                      Check (Battle.countChrOverlap [701Eh](group=ActiveChrs [FFFEh], btlChr=AllMonsters [FFF1h])) else jump to j1A (0279)
026D                  AEFEFF B5A170 A00200                             Set battleVar0288 = Battle.dereferenceEnemy [70A1h](btlChr=ActiveChrs [FFFEh]);
0276                  B01B00                                           Jump to j1B (0282)
0279 j1A:             AEFDFF B5A170 A00200                             Set battleVar0288 = Battle.dereferenceEnemy [70A1h](btlChr=TargetChrs [FFFDh]);
0282 j1B:             9F0200 B52170 2C                                 switch Battle.dereferenceCharacter [7021h](btlChr=battleVar0288)
0289                  B01C00                                           Jump to j1C (02D8)
028C j1E,j1F,j20,j21,j22,j23,j24,j25: B01D00                           Jump to j1D (031B)
028F j26:             9F0200 2C                                        switch battleVar0288
0293                  B02700                                           Jump to j27 (02BD)
0296 j29:             AE1600 AED800 AE0000 D81870                      Set [7018h] Monster#02 [16h].stat_visible_cam [D8h] = 0 [00h];
02A2 j2A:             AE1500 AED800 AE0000 D81870                      Set [7018h] Monster#01 [15h].stat_visible_cam [D8h] = 0 [00h];
02AE j2B:             AE1400 AED800 AE0000 D81870                      Set [7018h] Monster#00 [14h].stat_visible_cam [D8h] = 0 [00h];
02BA                  B02800                                           Jump to j28 (02D5)
02BD j27:             AE1700 29 06 D62900                              (Monster#03 [17h] == case) -> j29 (0296)
02C5                  AE1600 29 06 D62A00                              (Monster#02 [16h] == case) -> j2A (02A2)
02CD                  AE1500 29 06 D62B00                              (Monster#01 [15h] == case) -> j2B (02AE)
02D5 j28:             B01D00                                           Jump to j1D (031B)
02D8 j1C:             AE7510 29 06 D61E00                              (Actors:MonsterType=m117 (Sinspawn Gui) [1075h] == case) -> j1E (028C)
02E0                  AEA010 29 06 D61F00                              (Actors:MonsterType=m160 (Head) [10A0h] == case) -> j1F (028C)
02E8                  AEA110 29 06 D62000                              (Actors:MonsterType=m161 (Arm) [10A1h] == case) -> j20 (028C)
02F0                  AE1811 29 06 D62100                              (Actors:MonsterType=m280 (Ultima Buster) [1118h] == case) -> j21 (028C)
02F8                  AE1011 29 06 D62200                              (Actors:MonsterType=m272 (Head) [1110h] == case) -> j22 (028C)
0300                  AE1111 29 06 D62300                              (Actors:MonsterType=m273 (Arm) [1111h] == case) -> j23 (028C)
0308                  AECA10 29 06 D62400                              (Actors:MonsterType=m202 (Magic Urn) [10CAh] == case) -> j24 (028C)
0310                  AEFF10 29 06 D62500                              (Actors:MonsterType=m255 (Magic Urn) [10FFh] == case) -> j25 (028C)
0318                  B02600                                           Jump to j26 (028F)
031B j1D:             B00D00                                           Jump to j0D (0379)
031E j0C:             AD0200 29 06 D60E00                              (kino02_00 [00DE0000h] == case) -> j0E (025E)
0326                  AD0300 29 06 D60F00                              (kino03_10 [00DF000Ah] == case) -> j0F (025E)
032E                  AD0400 29 06 D61000                              (stbv01_10 [0196000Ah] == case) -> j10 (025E)
0336                  AD0500 29 06 D61100                              (mtgz02_00 [01E70000h] == case) -> j11 (025E)
033E                  AD0600 29 06 D61200                              (klyt01_00 [00840000h] == case) -> j12 (025E)
0346                  AD0700 29 06 D61300                              (dome02_00 [02050000h] == case) -> j13 (025E)
034E                  AD0800 29 06 D61400                              (stbv00_10 [0195000Ah] == case) -> j14 (025E)
0356                  AD0900 29 06 D61500                              (stbv00_11 [0195000Bh] == case) -> j15 (025E)
035E                  AD0A00 29 06 D61600                              (ssbt00_00 [02350000h] == case) -> j16 (025E)
0366                  AD0B00 29 06 D61700                              (ssbt01_00 [02360000h] == case) -> j17 (025E)
036E                  AD0C00 29 06 D61800                              (ssbt03_00 [02380000h] == case) -> j18 (025E)
0376                  B01900                                           Jump to j19 (0261)
0379 j0D:             AEFEFF AEFFFF AF0700 AF0800 AF0100 AF0900 D84160 call Camera.refSetBtlPolar [6041h](p1=-2 [FFFEh], p2=-1 [FFFFh], p3=74.00002 [42940003h], p4=19.999992 [419FFFFCh], p5=0.0 [00h], p6=-100.00015 [C2C80014h]);
038E                  AEFEFF AEFFFF AF0A00 AF0C00 AF0100 AF0B00 D84460 call Camera.camSetBtlPolar2 [6044h](p1=-2 [FFFEh], p2=-1 [FFFFh], p3=11.999998 [413FFFFEh], p4=-99.0 [C2C60000h], p5=0.0 [00h], p6=207.99998 [434FFFFFh]);
03A3                  AF0100 D83A60                                    call Camera.camSetRoll [603Ah](p1=0.0 [00h]);
03A9                  AF0D00 D83B60                                    call Camera.camSetScrDpt [603Bh](p1=550.0 [44098000h]);
03AF                  9F0000 D80000                                    call Common.wait [0000h](frames=battleVar0094);
03B5                  AE1400 D80000                                    call Common.wait [0000h](frames=20 [14h]);
03BB                  D81660                                           call Camera.camResetMove [6016h]();
03BE                  D83460                                           call Camera.refResetMove [6034h]();
03C1                  3C                                               return;
03C2 j2C:             AEFEFF AEFFFF AF0E00 AF0800 AF0100 AF0F00 D84160 call Camera.refSetBtlPolar [6041h](p1=-2 [FFFEh], p2=-1 [FFFFh], p3=95.000046 [42BE0006h], p4=19.999992 [419FFFFCh], p5=0.0 [00h], p6=-1.33E-4 [B90B75EAh]);
03D7                  AEFEFF AEFFFF AF1000 AF1100 AF0100 AF1200 D84460 call Camera.camSetBtlPolar2 [6044h](p1=-2 [FFFEh], p2=-1 [FFFFh], p3=119.99999 [42EFFFFFh], p4=18.999977 [4197FFF4h], p5=0.0 [00h], p6=179.0 [43330000h]);
03EC                  AF0100 D83A60                                    call Camera.camSetRoll [603Ah](p1=0.0 [00h]);
03F2                  AF1300 D83B60                                    call Camera.camSetScrDpt [603Bh](p1=824.0 [444E0000h]);
03F8                  9F0000 AE0400 17 AE0300 16 D80000                call Common.wait [0000h](frames=(battleVar0094 / 4 [04h]) * 3 [03h]);
0406                  D81660                                           call Camera.camResetMove [6016h]();
0409                  AE1400 D80000                                    call Common.wait [0000h](frames=20 [14h]);
040F                  D83460                                           call Camera.refResetMove [6034h]();
0412                  3C                                               return;
0413 j2D,j2E:         AE0100 AE1C00 D83F70                             call Battle.camReq [703Fh](p1=1 [01h], p2=28 [1Ch]);
041C                  3C                                               return;
041D                  B00400                                           Jump to j04 (0440)
0420 j03:             AE0000 29 06 D60500                              (0 [00h] == case) -> j05 (0204)
0428                  AE0100 29 06 D62C00                              (1 [01h] == case) -> j2C (03C2)
0430                  AE0200 29 06 D62D00                              (2 [02h] == case) -> j2D (0413)
0438                  AE0300 29 06 D62E00                              (3 [03h] == case) -> j2E (0413)
0440 j04:             3C                                               return;
- Script Workers -
Script Code Start Address: 0198
Creator: keisuke
3 Workers Total
w00: { Battle, Type=MotionHandler [01h], PurposeSlot=battleWorkerSlot:64 [40h], Entrypoints=3 [03h], Jumps=0 [00h], privateData addr=0000 len=00 }
w01: { Battle, Type=CombatHandler [02h], PurposeSlot=MonsterAi [3Dh], Entrypoints=7 [07h], Jumps=8 [08h], privateData addr=0000 len=08 }
w02: { Battle, Type=CameraHandler [00h], PurposeSlot=?BattleCameras [00h], Entrypoints=3 [03h], Jumps=47 [2Fh], privateData addr=0000 len=00 }
Variables (5 at offset 00EC)
Variable 00: battleVar0094 { battleVars[0094], type=int (int32) } [0000000152000094h]
Variable 01: battleVar00F4 { battleVars[00F4], type=int (int32) } [00000001520000F4h]
Variable 02: battleVar0288 { battleVars[0288], type=btlChr (int32) } [0000000152000288h]
Variable 03: priv+0000 { private[0000], type=btlChr (int32) } [0000000156000000h]
Variable 04: priv+0004 { private[0004], type=int (int32) } [0000000156000004h]
- Monster Stats -
HP=400 MP=50 Overkill=600
STR=20 DEF=0 MAG=0 MDF=120
AGI=20 LCK=15 EVA=8 ACC=0
Element Affinities: Weak=[Fire]
Status Resists: Sleep/Silence/Darkness (20%), Auto-Life (Immune)
Threaten Base Chance=100%
Poison Damage=25%
Ability List: [Attack] [409Eh]
Forced Action: [Attack] [4000h]
Doom Counter=1
CTB Icon Type=Monster [14h]
Captured Monster Index=11 [0Bh]
Model/Motion Base=mon/m010 (Wolf) [100Ah]
Sound Bank=m009 (Dingo) [1009h]
- Monster Loot -
Gil=192
AP Normal=300 Overkill=600
No Ronso Rage
Primary Item Drop: Chance=255/255
 COMMON Normal 1x Power Sphere [2046h]; Overkill 2x Power Sphere [2046h]
   RARE Normal 1x Power Sphere [2046h]; Overkill 2x Power Sphere [2046h]
Secondary Item Drop: Chance=0/255
Steal Item: Chance=255/255
 COMMON 1x Sleeping Powder [2025h]
   RARE 2x Sleeping Powder [2025h]
Bribe Baseline: 11x Sleeping Powder [2025h]
Gear Drop: Chance=12/255
 Formula=1, Power=16, Crit=3%, Slots=1.25-3.0 [09h], Ability Rolls=1.125-2.0 [0Dh]
 Weapon AK: Piercing [800Bh] (Forced), Icestrike [8022h] (1/7), Lightningstrike [8026h] (1/7), Waterstrike [802Ah] (1/7), Distill Power [807Ch] (3/7), Firestrike [801Eh] (1/7)
        TYWLR: Icestrike [8022h] (1/7), Lightningstrike [8026h] (1/7), Waterstrike [802Ah] (1/7), Distill Power [807Ch] (3/7), Firestrike [801Eh] (1/7)
 Armor  TYAKWLR: Sleep Ward [8041h] (3/7), Silence Ward [8045h] (3/7), Magic Def +5% [806Fh] (1/7)
Zanmato Level: 1
Stolen Gil: Up to 200
Monster Arena Price (Unused): 288
- Localized Strings -
Name: Snow Wolf
- Sensor Text -
Very nimble. Resistant to magic.
- Scan Text -
Very nimble and hard to hit.{\n}Magic defense is also high.{\n}Defeat it quickly to avoid{\n}damage.{\n}It’s vulnerable to fire.

--- src/main/resources/ffx_ps2/ffx/master/jppc/battle/mon/_m013/m013.bin ---
Sand Wolf [100Dh]
- Script Code -
0000 w00init:         3C                                               return;
0001 w00main:         D85F00                                           call Common.halt [005Fh]();
0004                  3C                                               return;
0005 w00e02s40t01p27: AE0000 AE0000 D85D70                             call Battle.btlSetBindEffect [705Dh](p1=0 [00h], p2=0 [00h]);
000E                  3C                                               return;
000F w01init:         AE9E00 AE2E01 D8AB70                             Set [70ABh] Self.stat_motion_type [9Eh] = [motion_type_attack_run_01, motion_type_attack_miss, motion_type_attack_return, motion_type_avoid_move, motion_type_move_back_jump] [012Eh];
0018                  AEA300 AE0100 D8AB70                             Set [70ABh] Self.stat_direction_change_effect [A3h] = 1 [01h];
0021                  AEA400 AE0000 D8AB70                             Set [70ABh] Self.stat_direction_fix_flag [A4h] = 0 [00h];
002A                  AE0000 AF0000 D8B270                             Set [70B2h] Self.motion_attack_start_dist [00h] = 30.0 [41F00000h];
0033                  AE0100 AF0100 D8B270                             Set [70B2h] Self.motion_attack_offset [01h] = 0.0 [00h];
003C                  AE0800 AF0100 D8B270                             Set [70B2h] Self.motion_attack_height [08h] = 0.0 [00h];
0045                  AE0200 AF0200 D8B270                             Set [70B2h] Self.motion_move_backjump_dist [02h] = -1.0 [BF800000h];
004E                  AE0300 AF0300 D8B270                             Set [70B2h] Self.motion_run_speed [03h] = 3.0 [40400000h];
0057                  AE0400 AF0400 D8B270                             Set [70B2h] Self.motion_run_speed_return [04h] = 2.5 [40200000h];
0060                  AE0500 AF0100 D8B270                             Set [70B2h] Self.motion_run_speed_v0 [05h] = 0.0 [00h];
0069                  AE0600 AF0500 D8B270                             Set [70B2h] Self.motion_run_speed_acc [06h] = 0.4 [3ECCCCCDh];
0072                  AE0700 AF0600 D8B270                             Set [70B2h] Self.motion_weight [07h] = 60.0 [42700000h];
007B                  AEDA00 AE0600 D8AB70                             Set [70ABh] Self.stat_round [DAh] = 6 [06h];
0084                  AEDB00 AE0600 D8AB70                             Set [70ABh] Self.stat_round_return [DBh] = 6 [06h];
008D                  AEE600 AE2000 D8AB70                             Set [70ABh] Self.stat_attack_inc_speed [E6h] = 32 [20h];
0096                  AEE700 AE2000 D8AB70                             Set [70ABh] Self.stat_attack_dec_speed [E7h] = 32 [20h];
009F                  AEE400 AE0400 D8AB70                             Set [70ABh] Self.stat_idle2_prob [E4h] = 4 [04h];
00A8                  AEEA00 AE3C00 D8AB70                             Set [70ABh] Self.stat_motion_num [EAh] = 60 [3Ch];
00B1                  AE7C00 AE1000 D8AB70                             Set [70ABh] Self.stat_attack_normal_frame [7Ch] = 16 [10h];
00BA                  AE1601 AE1000 D8AB70                             Set [70ABh] Self.stat_attack_near_frame [0116h] = 16 [10h];
00C3                  AE2301 AE0C00 D8AB70                             Set [70ABh] Self.stat_attack_motion_frame [0123h] = 12 [0Ch];
00CC                  AEF3FF AE4F00 AE0300 D81870                      Set [7018h] Self [FFF3h].DeathAnimation [4Fh] = Fiend (Pyrefly dissipation) [03h];
00D8                  3C                                               return;
00D9 w01main:         D85F00                                           call Common.halt [005Fh]();
00DC                  3C                                               return;
00DD w01e02onTurn:    AEF2FF AEECFF B51E70 D70000                      Check (Battle.countChrOverlap [701Eh](group=FrontlineChars [FFF2h], btlChr=AllAeons [FFECh])) else jump to j00 (0117)
00E9                  AEF2FF AE0800 B51E70 D70100                      Check (Battle.countChrOverlap [701Eh](group=FrontlineChars [FFF2h], btlChr=Valefor [08h])) else jump to j01 (00F9)
00F5                  3C                                               return;
00F6                  B00200                                           Jump to j02 (0114)
00F9 j01:             AEF2FF AE0400 AE0000 AE0000 B51070 A00300        Set priv0000 = Battle.findMatchingChr [7010h](group=FrontlineChars [FFF2h], property=isAlive [04h], unused=0 [00h], selector=Any/All [00h]);
010B                  9F0300 AE9E40 D80B70                             call Battle.performCommand [700Bh](target=priv0000, command="[Attack]" [409Eh]);
0114 j02:             B00300                                           Jump to j03 (0132)
0117 j00:             AEF2FF AE0400 AE0000 AE0000 B51070 A00300        Set priv0000 = Battle.findMatchingChr [7010h](group=FrontlineChars [FFF2h], property=isAlive [04h], unused=0 [00h], selector=Any/All [00h]);
0129                  9F0300 AE9E40 D80B70                             call Battle.performCommand [700Bh](target=priv0000, command="[Attack]" [409Eh]);
0132 j03:             3C                                               return;
0133 w01e03onHit:     3C                                               return;
0134 w01e04preTurn:   3C                                               return;
0135 w01e05onTargeted: 3C                                              return;
0136 w01e06onDeath:   3C                                               return;
0137 w02init:         3C                                               return;
0138 w02main:         D85F00                                           call Common.halt [005Fh]();
013B                  3C                                               return;
013C w02e02?BattleCam1A: D81660                                        call Camera.camResetMove [6016h]();
013F                  D83460                                           call Camera.refResetMove [6034h]();
0142                  AEEDFF AEFDFF B51E70 19 D70000                   Check (!Battle.countChrOverlap [701Eh](group=CHR_ALL_PLY2 [FFEDh], btlChr=TargetChrs [FFFDh])) else jump to j00 (0159)
014F                  AE0100 AE1C00 D83F70                             call Battle.camReq [703Fh](p1=1 [01h], p2=28 [1Ch]);
0158                  3C                                               return;
0159 j00:             AEFEFF B57A70 AE0100 06 D70100                   Check (Battle.btlGetCalcResult [707Ah](btlChr=ActiveChrs [FFFEh]) == 1 [01h]) else jump to j01 (0170)
0166                  AE0100 AE1C00 D83F70                             call Battle.camReq [703Fh](p1=1 [01h], p2=28 [1Ch]);
016F                  3C                                               return;
0170 j01:             AEFEFF B5B070 A00000                             Set battleVar0094 = Battle.btlDistTargetFrame2 [70B0h](p1=-2 [FFFEh]);
0179 j02:             AE0000 B58060 AE0300 18 59                       Set tmpI0 = Camera.camRand [6080h](p1=0 [00h]) mod 3 [03h];
0184                  67 9F0100 06 D60200                              (tmpI0 == battleVar00F4) -> j02 (0179)
018C                  67 A00100                                        Set battleVar00F4 = tmpI0;
0190                  9F0100 2C                                        switch battleVar00F4
0194                  B00300                                           Jump to j03 (03B3)
0197 j05:             AEFEFF AEF2FF B51E70 D70600                      Check (Battle.countChrOverlap [701Eh](group=ActiveChrs [FFFEh], btlChr=FrontlineChars [FFF2h])) else jump to j06 (01AF)
01A3                  AEFEFF B5A170 A00200                             Set battleVar0288 = Battle.dereferenceEnemy [70A1h](btlChr=ActiveChrs [FFFEh]);
01AC                  B00700                                           Jump to j07 (01B8)
01AF j06:             AEFDFF B5A170 A00200                             Set battleVar0288 = Battle.dereferenceEnemy [70A1h](btlChr=TargetChrs [FFFDh]);
01B8 j07:             9F0200 2C                                        switch battleVar0288
01BC                  B00800                                           Jump to j08 (01DA)
01BF j0A:             AEF9FF AED800 AE0000 D81870                      Set [7018h] Character#2 [FFF9h].stat_visible_cam [D8h] = 0 [00h];
01CB j0B:             AEFAFF AED800 AE0000 D81870                      Set [7018h] Character#1 [FFFAh].stat_visible_cam [D8h] = 0 [00h];
01D7                  B00900                                           Jump to j09 (01EA)
01DA j08:             AEF8FF 29 06 D60A00                              (Character#3 [FFF8h] == case) -> j0A (01BF)
01E2                  AEF9FF 29 06 D60B00                              (Character#2 [FFF9h] == case) -> j0B (01CB)
01EA j09:             B52470 2C                                        switch Battle.CurrentEncounter [7024h]
01EE                  B00C00                                           Jump to j0C (02B1)
01F1 j0E,j0F,j10,j11,j12,j13,j14,j15,j16,j17,j18: B00D00               Jump to j0D (030C)
01F4 j19:             AEFEFF AEF1FF B51E70 D71A00                      Check (Battle.countChrOverlap [701Eh](group=ActiveChrs [FFFEh], btlChr=AllMonsters [FFF1h])) else jump to j1A (020C)
0200                  AEFEFF B5A170 A00200                             Set battleVar0288 = Battle.dereferenceEnemy [70A1h](btlChr=ActiveChrs [FFFEh]);
0209                  B01B00                                           Jump to j1B (0215)
020C j1A:             AEFDFF B5A170 A00200                             Set battleVar0288 = Battle.dereferenceEnemy [70A1h](btlChr=TargetChrs [FFFDh]);
0215 j1B:             9F0200 B52170 2C                                 switch Battle.dereferenceCharacter [7021h](btlChr=battleVar0288)
021C                  B01C00                                           Jump to j1C (026B)
021F j1E,j1F,j20,j21,j22,j23,j24,j25: B01D00                           Jump to j1D (02AE)
0222 j26:             9F0200 2C                                        switch battleVar0288
0226                  B02700                                           Jump to j27 (0250)
0229 j29:             AE1600 AED800 AE0000 D81870                      Set [7018h] Monster#02 [16h].stat_visible_cam [D8h] = 0 [00h];
0235 j2A:             AE1500 AED800 AE0000 D81870                      Set [7018h] Monster#01 [15h].stat_visible_cam [D8h] = 0 [00h];
0241 j2B:             AE1400 AED800 AE0000 D81870                      Set [7018h] Monster#00 [14h].stat_visible_cam [D8h] = 0 [00h];
024D                  B02800                                           Jump to j28 (0268)
0250 j27:             AE1700 29 06 D62900                              (Monster#03 [17h] == case) -> j29 (0229)
0258                  AE1600 29 06 D62A00                              (Monster#02 [16h] == case) -> j2A (0235)
0260                  AE1500 29 06 D62B00                              (Monster#01 [15h] == case) -> j2B (0241)
0268 j28:             B01D00                                           Jump to j1D (02AE)
026B j1C:             AE7510 29 06 D61E00                              (Actors:MonsterType=m117 (Sinspawn Gui) [1075h] == case) -> j1E (021F)
0273                  AEA010 29 06 D61F00                              (Actors:MonsterType=m160 (Head) [10A0h] == case) -> j1F (021F)
027B                  AEA110 29 06 D62000                              (Actors:MonsterType=m161 (Arm) [10A1h] == case) -> j20 (021F)
0283                  AE1811 29 06 D62100                              (Actors:MonsterType=m280 (Ultima Buster) [1118h] == case) -> j21 (021F)
028B                  AE1011 29 06 D62200                              (Actors:MonsterType=m272 (Head) [1110h] == case) -> j22 (021F)
0293                  AE1111 29 06 D62300                              (Actors:MonsterType=m273 (Arm) [1111h] == case) -> j23 (021F)
029B                  AECA10 29 06 D62400                              (Actors:MonsterType=m202 (Magic Urn) [10CAh] == case) -> j24 (021F)
02A3                  AEFF10 29 06 D62500                              (Actors:MonsterType=m255 (Magic Urn) [10FFh] == case) -> j25 (021F)
02AB                  B02600                                           Jump to j26 (0222)
02AE j1D:             B00D00                                           Jump to j0D (030C)
02B1 j0C:             AD0000 29 06 D60E00                              (kino02_00 [00DE0000h] == case) -> j0E (01F1)
02B9                  AD0100 29 06 D60F00                              (kino03_10 [00DF000Ah] == case) -> j0F (01F1)
02C1                  AD0200 29 06 D61000                              (stbv01_10 [0196000Ah] == case) -> j10 (01F1)
02C9                  AD0300 29 06 D61100                              (mtgz02_00 [01E70000h] == case) -> j11 (01F1)
02D1                  AD0400 29 06 D61200                              (klyt01_00 [00840000h] == case) -> j12 (01F1)
02D9                  AD0500 29 06 D61300                              (dome02_00 [02050000h] == case) -> j13 (01F1)
02E1                  AD0600 29 06 D61400                              (stbv00_10 [0195000Ah] == case) -> j14 (01F1)
02E9                  AD0700 29 06 D61500                              (stbv00_11 [0195000Bh] == case) -> j15 (01F1)
02F1                  AD0800 29 06 D61600                              (ssbt00_00 [02350000h] == case) -> j16 (01F1)
02F9                  AD0900 29 06 D61700                              (ssbt01_00 [02360000h] == case) -> j17 (01F1)
0301                  AD0A00 29 06 D61800                              (ssbt03_00 [02380000h] == case) -> j18 (01F1)
0309                  B01900                                           Jump to j19 (01F4)
030C j0D:             AEFEFF AEFFFF AF0700 AF0800 AF0100 AF0900 D84160 call Camera.refSetBtlPolar [6041h](p1=-2 [FFFEh], p2=-1 [FFFFh], p3=74.00002 [42940003h], p4=19.999992 [419FFFFCh], p5=0.0 [00h], p6=-100.00015 [C2C80014h]);
0321                  AEFEFF AEFFFF AF0A00 AF0C00 AF0100 AF0B00 D84460 call Camera.camSetBtlPolar2 [6044h](p1=-2 [FFFEh], p2=-1 [FFFFh], p3=11.999998 [413FFFFEh], p4=-99.0 [C2C60000h], p5=0.0 [00h], p6=207.99998 [434FFFFFh]);
0336                  AF0100 D83A60                                    call Camera.camSetRoll [603Ah](p1=0.0 [00h]);
033C                  AF0D00 D83B60                                    call Camera.camSetScrDpt [603Bh](p1=550.0 [44098000h]);
0342                  9F0000 D80000                                    call Common.wait [0000h](frames=battleVar0094);
0348                  AE1400 D80000                                    call Common.wait [0000h](frames=20 [14h]);
034E                  D81660                                           call Camera.camResetMove [6016h]();
0351                  D83460                                           call Camera.refResetMove [6034h]();
0354                  3C                                               return;
0355 j2C:             AEFEFF AEFFFF AF0E00 AF0800 AF0100 AF0F00 D84160 call Camera.refSetBtlPolar [6041h](p1=-2 [FFFEh], p2=-1 [FFFFh], p3=95.000046 [42BE0006h], p4=19.999992 [419FFFFCh], p5=0.0 [00h], p6=-1.33E-4 [B90B75EAh]);
036A                  AEFEFF AEFFFF AF1000 AF1100 AF0100 AF1200 D84460 call Camera.camSetBtlPolar2 [6044h](p1=-2 [FFFEh], p2=-1 [FFFFh], p3=119.99999 [42EFFFFFh], p4=18.999977 [4197FFF4h], p5=0.0 [00h], p6=179.0 [43330000h]);
037F                  AF0100 D83A60                                    call Camera.camSetRoll [603Ah](p1=0.0 [00h]);
0385                  AF1300 D83B60                                    call Camera.camSetScrDpt [603Bh](p1=824.0 [444E0000h]);
038B                  9F0000 AE0400 17 AE0300 16 D80000                call Common.wait [0000h](frames=(battleVar0094 / 4 [04h]) * 3 [03h]);
0399                  D81660                                           call Camera.camResetMove [6016h]();
039C                  AE1400 D80000                                    call Common.wait [0000h](frames=20 [14h]);
03A2                  D83460                                           call Camera.refResetMove [6034h]();
03A5                  3C                                               return;
03A6 j2D,j2E:         AE0100 AE1C00 D83F70                             call Battle.camReq [703Fh](p1=1 [01h], p2=28 [1Ch]);
03AF                  3C                                               return;
03B0                  B00400                                           Jump to j04 (03D3)
03B3 j03:             AE0000 29 06 D60500                              (0 [00h] == case) -> j05 (0197)
03BB                  AE0100 29 06 D62C00                              (1 [01h] == case) -> j2C (0355)
03C3                  AE0200 29 06 D62D00                              (2 [02h] == case) -> j2D (03A6)
03CB                  AE0300 29 06 D62E00                              (3 [03h] == case) -> j2E (03A6)
03D3 j04:             3C                                               return;
- Script Workers -
Script Code Start Address: 0188
Creator: keisuke
3 Workers Total
w00: { Battle, Type=MotionHandler [01h], PurposeSlot=battleWorkerSlot:64 [40h], Entrypoints=3 [03h], Jumps=0 [00h], privateData addr=0000 len=00 }
w01: { Battle, Type=CombatHandler [02h], PurposeSlot=MonsterAi [3Dh], Entrypoints=7 [07h], Jumps=4 [04h], privateData addr=0000 len=08 }
w02: { Battle, Type=CameraHandler [00h], PurposeSlot=?BattleCameras [00h], Entrypoints=3 [03h], Jumps=47 [2Fh], privateData addr=0000 len=00 }
Variables (4 at offset 00EC)
Variable 00: battleVar0094 { battleVars[0094], type=int (int32) } [0000000152000094h]
Variable 01: battleVar00F4 { battleVars[00F4], type=int (int32) } [00000001520000F4h]
Variable 02: battleVar0288 { battleVars[0288], type=btlChr (int32) } [0000000152000288h]
Variable 03: priv+0000 { private[0000], type=btlChr (int32) } [0000000156000000h]
- Monster Stats -
HP=450 MP=55 Overkill=675
STR=23 DEF=0 MAG=0 MDF=120
AGI=23 LCK=15 EVA=9 ACC=0
Element Affinities: Weak=[Fire, Ice]
Status Resists: Sleep/Silence/Darkness (20%), Auto-Life (Immune)
Threaten Base Chance=100%
Poison Damage=25%
Ability List: [Attack] [409Eh]
Forced Action: [Attack] [4000h]
Doom Counter=1
CTB Icon Type=Monster [14h]
Captured Monster Index=12 [0Ch]
Model/Motion Base=mon/m010 (Wolf) [100Ah]
Sound Bank=m009 (Dingo) [1009h]
- Monster Loot -
Gil=225
AP Normal=310 Overkill=620
No Ronso Rage
Primary Item Drop: Chance=255/255
 COMMON Normal 1x Power Sphere [2046h]; Overkill 2x Power Sphere [2046h]
   RARE Normal 1x Power Sphere [2046h]; Overkill 2x Power Sphere [2046h]
Secondary Item Drop: Chance=255/255
 COMMON Normal 1x Al Bhed Potion [2014h]; Overkill 2x Al Bhed Potion [2014h]
   RARE Normal 1x Al Bhed Potion [2014h]; Overkill 2x Al Bhed Potion [2014h]
Steal Item: Chance=255/255
 COMMON 2x Sleeping Powder [2025h]
   RARE 2x Sleeping Powder [2025h]
Bribe Baseline: 12x Sleeping Powder [2025h]
Gear Drop: Chance=12/255
 Formula=1, Power=16, Crit=3%, Slots=1.5-3.25 [0Ah], Ability Rolls=1.125-2.0 [0Dh]
 Weapon AK: Piercing [800Bh] (Forced), Icestrike [8022h] (1/7), Lightningstrike [8026h] (1/7), Waterstrike [802Ah] (1/7), Distill Power [807Ch] (3/7), Firestrike [801Eh] (1/7)
        TYWLR: Icestrike [8022h] (1/7), Lightningstrike [8026h] (1/7), Waterstrike [802Ah] (1/7), Distill Power [807Ch] (3/7), Firestrike [801Eh] (1/7)
 Armor  TYAKWLR: Sleep Ward [8041h] (3/7), Silence Ward [8045h] (3/7), Magic Def +5% [806Fh] (1/7)
Zanmato Level: 1
Stolen Gil: Up to 300
Monster Arena Price (Unused): 337
- Localized Strings -
Name: Sand Wolf
- Sensor Text -
Very nimble. Resistant to magic. Watch out for {CLR:OL_CYAN}sleep{CLR:WHITE} and {CLR:OL_CYAN}silence{CLR:WHITE}.
- Scan Text -
Very nimble and hard to hit.{\n}Magic defense is also high.{\n}Defeat it quickly to avoid{\n}damage.{\n}Vulnerable to fire and ice.{\n}Its attacks may cause {CLR:OL_CYAN}sleep{CLR:WHITE}{\n}and {CLR:OL_CYAN}silence{CLR:WHITE}.

--- src/main/resources/ffx_ps2/ffx/master/jppc/battle/mon/_m014/m014.bin ---
Skoll [100Eh]
- Script Code -
0000 w00init:         3C                                               return;
0001 w00main:         D85F00                                           call Common.halt [005Fh]();
0004                  3C                                               return;
0005 w00e02s40t01p27: AE0000 AE0000 D85D70                             call Battle.btlSetBindEffect [705Dh](p1=0 [00h], p2=0 [00h]);
000E                  3C                                               return;
000F w01init:         AE9E00 AE2E01 D8AB70                             Set [70ABh] Self.stat_motion_type [9Eh] = [motion_type_attack_run_01, motion_type_attack_miss, motion_type_attack_return, motion_type_avoid_move, motion_type_move_back_jump] [012Eh];
0018                  AEA300 AE0100 D8AB70                             Set [70ABh] Self.stat_direction_change_effect [A3h] = 1 [01h];
0021                  AEA400 AE0000 D8AB70                             Set [70ABh] Self.stat_direction_fix_flag [A4h] = 0 [00h];
002A                  AE0000 AF0000 D8B270                             Set [70B2h] Self.motion_attack_start_dist [00h] = 30.0 [41F00000h];
0033                  AE0100 AF0100 D8B270                             Set [70B2h] Self.motion_attack_offset [01h] = 0.0 [00h];
003C                  AE0800 AF0100 D8B270                             Set [70B2h] Self.motion_attack_height [08h] = 0.0 [00h];
0045                  AE0200 AF0200 D8B270                             Set [70B2h] Self.motion_move_backjump_dist [02h] = -1.0 [BF800000h];
004E                  AE0300 AF0300 D8B270                             Set [70B2h] Self.motion_run_speed [03h] = 3.0 [40400000h];
0057                  AE0400 AF0400 D8B270                             Set [70B2h] Self.motion_run_speed_return [04h] = 2.5 [40200000h];
0060                  AE0500 AF0100 D8B270                             Set [70B2h] Self.motion_run_speed_v0 [05h] = 0.0 [00h];
0069                  AE0600 AF0500 D8B270                             Set [70B2h] Self.motion_run_speed_acc [06h] = 0.4 [3ECCCCCDh];
0072                  AE0700 AF0600 D8B270                             Set [70B2h] Self.motion_weight [07h] = 60.0 [42700000h];
007B                  AEDA00 AE0600 D8AB70                             Set [70ABh] Self.stat_round [DAh] = 6 [06h];
0084                  AEDB00 AE0600 D8AB70                             Set [70ABh] Self.stat_round_return [DBh] = 6 [06h];
008D                  AEE600 AE2000 D8AB70                             Set [70ABh] Self.stat_attack_inc_speed [E6h] = 32 [20h];
0096                  AEE700 AE2000 D8AB70                             Set [70ABh] Self.stat_attack_dec_speed [E7h] = 32 [20h];
009F                  AEE400 AE0400 D8AB70                             Set [70ABh] Self.stat_idle2_prob [E4h] = 4 [04h];
00A8                  AEEA00 AE3C00 D8AB70                             Set [70ABh] Self.stat_motion_num [EAh] = 60 [3Ch];
00B1                  AE7C00 AE1000 D8AB70                             Set [70ABh] Self.stat_attack_normal_frame [7Ch] = 16 [10h];
00BA                  AE1601 AE1000 D8AB70                             Set [70ABh] Self.stat_attack_near_frame [0116h] = 16 [10h];
00C3                  AE2301 AE0C00 D8AB70                             Set [70ABh] Self.stat_attack_motion_frame [0123h] = 12 [0Ch];
00CC                  AEF3FF AE4F00 AE0300 D81870                      Set [7018h] Self [FFF3h].DeathAnimation [4Fh] = Fiend (Pyrefly dissipation) [03h];
00D8                  3C                                               return;
00D9 w01main:         D85F00                                           call Common.halt [005Fh]();
00DC                  3C                                               return;
00DD w01e02onTurn:    AEF2FF AEECFF B51E70 D70000                      Check (Battle.countChrOverlap [701Eh](group=FrontlineChars [FFF2h], btlChr=AllAeons [FFECh])) else jump to j00 (0117)
00E9                  AEF2FF AE0800 B51E70 D70100                      Check (Battle.countChrOverlap [701Eh](group=FrontlineChars [FFF2h], btlChr=Valefor [08h])) else jump to j01 (00F9)
00F5                  3C                                               return;
00F6                  B00200                                           Jump to j02 (0114)
00F9 j01:             AEF2FF AE0400 AE0000 AE0000 B51070 A00300        Set priv0000 = Battle.findMatchingChr [7010h](group=FrontlineChars [FFF2h], property=isAlive [04h], unused=0 [00h], selector=Any/All [00h]);
010B                  9F0300 AE7F40 D80B70                             call Battle.performCommand [700Bh](target=priv0000, command="[Attack]" [407Fh]);
0114 j02:             B00300                                           Jump to j03 (0173)
0117 j00:             B5A900 AE0200 18 A00400                          Set priv0004 = Common.GetRandomValue [00A9h]() mod 2 [02h];
0121                  9F0400 AE0000 06 D70400                          Check (priv0004 == 0 [00h]) else jump to j04 (0158)
012B                  AEF2FF AE0400 AE0000 AE0000 D81070               call Battle.findMatchingChr [7010h](group=FrontlineChars [FFF2h], property=isAlive [04h], unused=0 [00h], selector=Any/All [00h]);
013A                  AEF0FF AE0000 AE0000 AE0200 B51070 A00300        Set priv0000 = Battle.findMatchingChr [7010h](group=MatchingGroup [FFF0h], property=HP [00h], unused=0 [00h], selector=Lowest [02h]);
014C                  9F0300 AE9F40 D80B70                             call Battle.performCommand [700Bh](target=priv0000, command="[Attack]" [409Fh]);
0155                  B00500                                           Jump to j05 (0173)
0158 j04:             AEF2FF AE0400 AE0000 AE0000 B51070 A00300        Set priv0000 = Battle.findMatchingChr [7010h](group=FrontlineChars [FFF2h], property=isAlive [04h], unused=0 [00h], selector=Any/All [00h]);
016A                  9F0300 AE9F40 D80B70                             call Battle.performCommand [700Bh](target=priv0000, command="[Attack]" [409Fh]);
0173 j03,j05:         3C                                               return;
0174 w01e03onHit:     3C                                               return;
0175 w01e04preTurn:   3C                                               return;
0176 w01e05onTargeted: 3C                                              return;
0177 w01e06onDeath:   3C                                               return;
0178 w02init:         3C                                               return;
0179 w02main:         D85F00                                           call Common.halt [005Fh]();
017C                  3C                                               return;
017D w02e02?BattleCam1A: D81660                                        call Camera.camResetMove [6016h]();
0180                  D83460                                           call Camera.refResetMove [6034h]();
0183                  AEEDFF AEFDFF B51E70 19 D70000                   Check (!Battle.countChrOverlap [701Eh](group=CHR_ALL_PLY2 [FFEDh], btlChr=TargetChrs [FFFDh])) else jump to j00 (019A)
0190                  AE0100 AE1C00 D83F70                             call Battle.camReq [703Fh](p1=1 [01h], p2=28 [1Ch]);
0199                  3C                                               return;
019A j00:             AEFEFF B57A70 AE0100 06 D70100                   Check (Battle.btlGetCalcResult [707Ah](btlChr=ActiveChrs [FFFEh]) == 1 [01h]) else jump to j01 (01B1)
01A7                  AE0100 AE1C00 D83F70                             call Battle.camReq [703Fh](p1=1 [01h], p2=28 [1Ch]);
01B0                  3C                                               return;
01B1 j01:             AEFEFF B5B070 A00000                             Set battleVar0094 = Battle.btlDistTargetFrame2 [70B0h](p1=-2 [FFFEh]);
01BA j02:             AE0000 B58060 AE0300 18 59                       Set tmpI0 = Camera.camRand [6080h](p1=0 [00h]) mod 3 [03h];
01C5                  67 9F0100 06 D60200                              (tmpI0 == battleVar00F4) -> j02 (01BA)
01CD                  67 A00100                                        Set battleVar00F4 = tmpI0;
01D1                  9F0100 2C                                        switch battleVar00F4
01D5                  B00300                                           Jump to j03 (03F4)
01D8 j05:             AEFEFF AEF2FF B51E70 D70600                      Check (Battle.countChrOverlap [701Eh](group=ActiveChrs [FFFEh], btlChr=FrontlineChars [FFF2h])) else jump to j06 (01F0)
01E4                  AEFEFF B5A170 A00200                             Set battleVar0288 = Battle.dereferenceEnemy [70A1h](btlChr=ActiveChrs [FFFEh]);
01ED                  B00700                                           Jump to j07 (01F9)
01F0 j06:             AEFDFF B5A170 A00200                             Set battleVar0288 = Battle.dereferenceEnemy [70A1h](btlChr=TargetChrs [FFFDh]);
01F9 j07:             9F0200 2C                                        switch battleVar0288
01FD                  B00800                                           Jump to j08 (021B)
0200 j0A:             AEF9FF AED800 AE0000 D81870                      Set [7018h] Character#2 [FFF9h].stat_visible_cam [D8h] = 0 [00h];
020C j0B:             AEFAFF AED800 AE0000 D81870                      Set [7018h] Character#1 [FFFAh].stat_visible_cam [D8h] = 0 [00h];
0218                  B00900                                           Jump to j09 (022B)
021B j08:             AEF8FF 29 06 D60A00                              (Character#3 [FFF8h] == case) -> j0A (0200)
0223                  AEF9FF 29 06 D60B00                              (Character#2 [FFF9h] == case) -> j0B (020C)
022B j09:             B52470 2C                                        switch Battle.CurrentEncounter [7024h]
022F                  B00C00                                           Jump to j0C (02F2)
0232 j0E,j0F,j10,j11,j12,j13,j14,j15,j16,j17,j18: B00D00               Jump to j0D (034D)
0235 j19:             AEFEFF AEF1FF B51E70 D71A00                      Check (Battle.countChrOverlap [701Eh](group=ActiveChrs [FFFEh], btlChr=AllMonsters [FFF1h])) else jump to j1A (024D)
0241                  AEFEFF B5A170 A00200                             Set battleVar0288 = Battle.dereferenceEnemy [70A1h](btlChr=ActiveChrs [FFFEh]);
024A                  B01B00                                           Jump to j1B (0256)
024D j1A:             AEFDFF B5A170 A00200                             Set battleVar0288 = Battle.dereferenceEnemy [70A1h](btlChr=TargetChrs [FFFDh]);
0256 j1B:             9F0200 B52170 2C                                 switch Battle.dereferenceCharacter [7021h](btlChr=battleVar0288)
025D                  B01C00                                           Jump to j1C (02AC)
0260 j1E,j1F,j20,j21,j22,j23,j24,j25: B01D00                           Jump to j1D (02EF)
0263 j26:             9F0200 2C                                        switch battleVar0288
0267                  B02700                                           Jump to j27 (0291)
026A j29:             AE1600 AED800 AE0000 D81870                      Set [7018h] Monster#02 [16h].stat_visible_cam [D8h] = 0 [00h];
0276 j2A:             AE1500 AED800 AE0000 D81870                      Set [7018h] Monster#01 [15h].stat_visible_cam [D8h] = 0 [00h];
0282 j2B:             AE1400 AED800 AE0000 D81870                      Set [7018h] Monster#00 [14h].stat_visible_cam [D8h] = 0 [00h];
028E                  B02800                                           Jump to j28 (02A9)
0291 j27:             AE1700 29 06 D62900                              (Monster#03 [17h] == case) -> j29 (026A)
0299                  AE1600 29 06 D62A00                              (Monster#02 [16h] == case) -> j2A (0276)
02A1                  AE1500 29 06 D62B00                              (Monster#01 [15h] == case) -> j2B (0282)
02A9 j28:             B01D00                                           Jump to j1D (02EF)
02AC j1C:             AE7510 29 06 D61E00                              (Actors:MonsterType=m117 (Sinspawn Gui) [1075h] == case) -> j1E (0260)
02B4                  AEA010 29 06 D61F00                              (Actors:MonsterType=m160 (Head) [10A0h] == case) -> j1F (0260)
02BC                  AEA110 29 06 D62000                              (Actors:MonsterType=m161 (Arm) [10A1h] == case) -> j20 (0260)
02C4                  AE1811 29 06 D62100                              (Actors:MonsterType=m280 (Ultima Buster) [1118h] == case) -> j21 (0260)
02CC                  AE1011 29 06 D62200                              (Actors:MonsterType=m272 (Head) [1110h] == case) -> j22 (0260)
02D4                  AE1111 29 06 D62300                              (Actors:MonsterType=m273 (Arm) [1111h] == case) -> j23 (0260)
02DC                  AECA10 29 06 D62400                              (Actors:MonsterType=m202 (Magic Urn) [10CAh] == case) -> j24 (0260)
02E4                  AEFF10 29 06 D62500                              (Actors:MonsterType=m255 (Magic Urn) [10FFh] == case) -> j25 (0260)
02EC                  B02600                                           Jump to j26 (0263)
02EF j1D:             B00D00                                           Jump to j0D (034D)
02F2 j0C:             AD0000 29 06 D60E00                              (kino02_00 [00DE0000h] == case) -> j0E (0232)
02FA                  AD0100 29 06 D60F00                              (kino03_10 [00DF000Ah] == case) -> j0F (0232)
0302                  AD0200 29 06 D61000                              (stbv01_10 [0196000Ah] == case) -> j10 (0232)
030A                  AD0300 29 06 D61100                              (mtgz02_00 [01E70000h] == case) -> j11 (0232)
0312                  AD0400 29 06 D61200                              (klyt01_00 [00840000h] == case) -> j12 (0232)
031A                  AD0500 29 06 D61300                              (dome02_00 [02050000h] == case) -> j13 (0232)
0322                  AD0600 29 06 D61400                              (stbv00_10 [0195000Ah] == case) -> j14 (0232)
032A                  AD0700 29 06 D61500                              (stbv00_11 [0195000Bh] == case) -> j15 (0232)
0332                  AD0800 29 06 D61600                              (ssbt00_00 [02350000h] == case) -> j16 (0232)
033A                  AD0900 29 06 D61700                              (ssbt01_00 [02360000h] == case) -> j17 (0232)
0342                  AD0A00 29 06 D61800                              (ssbt03_00 [02380000h] == case) -> j18 (0232)
034A                  B01900                                           Jump to j19 (0235)
034D j0D:             AEFEFF AEFFFF AF0700 AF0800 AF0100 AF0900 D84160 call Camera.refSetBtlPolar [6041h](p1=-2 [FFFEh], p2=-1 [FFFFh], p3=74.00002 [42940003h], p4=19.999992 [419FFFFCh], p5=0.0 [00h], p6=-100.00015 [C2C80014h]);
0362                  AEFEFF AEFFFF AF0A00 AF0C00 AF0100 AF0B00 D84460 call Camera.camSetBtlPolar2 [6044h](p1=-2 [FFFEh], p2=-1 [FFFFh], p3=11.999998 [413FFFFEh], p4=-99.0 [C2C60000h], p5=0.0 [00h], p6=207.99998 [434FFFFFh]);
0377                  AF0100 D83A60                                    call Camera.camSetRoll [603Ah](p1=0.0 [00h]);
037D                  AF0D00 D83B60                                    call Camera.camSetScrDpt [603Bh](p1=550.0 [44098000h]);
0383                  9F0000 D80000                                    call Common.wait [0000h](frames=battleVar0094);
0389                  AE1400 D80000                                    call Common.wait [0000h](frames=20 [14h]);
038F                  D81660                                           call Camera.camResetMove [6016h]();
0392                  D83460                                           call Camera.refResetMove [6034h]();
0395                  3C                                               return;
0396 j2C:             AEFEFF AEFFFF AF0E00 AF0800 AF0100 AF0F00 D84160 call Camera.refSetBtlPolar [6041h](p1=-2 [FFFEh], p2=-1 [FFFFh], p3=95.000046 [42BE0006h], p4=19.999992 [419FFFFCh], p5=0.0 [00h], p6=-1.33E-4 [B90B75EAh]);
03AB                  AEFEFF AEFFFF AF1000 AF1100 AF0100 AF1200 D84460 call Camera.camSetBtlPolar2 [6044h](p1=-2 [FFFEh], p2=-1 [FFFFh], p3=119.99999 [42EFFFFFh], p4=18.999977 [4197FFF4h], p5=0.0 [00h], p6=179.0 [43330000h]);
03C0                  AF0100 D83A60                                    call Camera.camSetRoll [603Ah](p1=0.0 [00h]);
03C6                  AF1300 D83B60                                    call Camera.camSetScrDpt [603Bh](p1=824.0 [444E0000h]);
03CC                  9F0000 AE0400 17 AE0300 16 D80000                call Common.wait [0000h](frames=(battleVar0094 / 4 [04h]) * 3 [03h]);
03DA                  D81660                                           call Camera.camResetMove [6016h]();
03DD                  AE1400 D80000                                    call Common.wait [0000h](frames=20 [14h]);
03E3                  D83460                                           call Camera.refResetMove [6034h]();
03E6                  3C                                               return;
03E7 j2D,j2E:         AE0100 AE1C00 D83F70                             call Battle.camReq [703Fh](p1=1 [01h], p2=28 [1Ch]);
03F0                  3C                                               return;
03F1                  B00400                                           Jump to j04 (0414)
03F4 j03:             AE0000 29 06 D60500                              (0 [00h] == case) -> j05 (01D8)
03FC                  AE0100 29 06 D62C00                              (1 [01h] == case) -> j2C (0396)
0404                  AE0200 29 06 D62D00                              (2 [02h] == case) -> j2D (03E7)
040C                  AE0300 29 06 D62E00                              (3 [03h] == case) -> j2E (03E7)
0414 j04:             3C                                               return;
- Script Workers -
Script Code Start Address: 0190
Creator: keisuke
3 Workers Total
w00: { Battle, Type=MotionHandler [01h], PurposeSlot=battleWorkerSlot:64 [40h], Entrypoints=3 [03h], Jumps=0 [00h], privateData addr=0000 len=00 }
w01: { Battle, Type=CombatHandler [02h], PurposeSlot=MonsterAi [3Dh], Entrypoints=7 [07h], Jumps=6 [06h], privateData addr=0000 len=08 }
w02: { Battle, Type=CameraHandler [00h], PurposeSlot=?BattleCameras [00h], Entrypoints=3 [03h], Jumps=47 [2Fh], privateData addr=0000 len=00 }
Variables (5 at offset 00EC)
Variable 00: battleVar0094 { battleVars[0094], type=int (int32) } [0000000152000094h]
Variable 01: battleVar00F4 { battleVars[00F4], type=int (int32) } [00000001520000F4h]
Variable 02: battleVar0288 { battleVars[0288], type=btlChr (int32) } [0000000152000288h]
Variable 03: priv+0000 { private[0000], type=btlChr (int32) } [0000000156000000h]
Variable 04: priv+0004 { private[0004], type=int (int32) } [0000000156000004h]
- Monster Stats -
HP=1000 MP=60 Overkill=1500
STR=28 DEF=0 MAG=0 MDF=180
AGI=28 LCK=15 EVA=10 ACC=0
Element Affinities: Weak=[Fire, Thunder]
Status Resists: Sleep/Silence/Darkness (20%), Auto-Life (Immune)
Threaten Base Chance=100%
Poison Damage=25%
Ability List: [Attack] [409Fh]
Forced Action: [Attack] [4000h]
Doom Counter=1
CTB Icon Type=Monster [14h]
Captured Monster Index=13 [0Dh]
Model/Motion Base=mon/m010 (Wolf) [100Ah]
Sound Bank=m009 (Dingo) [1009h]
- Monster Loot -
Gil=420
AP Normal=480 Overkill=960
No Ronso Rage
Primary Item Drop: Chance=255/255
 COMMON Normal 1x Power Sphere [2046h]; Overkill 2x Power Sphere [2046h]
   RARE Normal 1x Power Sphere [2046h]; Overkill 2x Power Sphere [2046h]
Secondary Item Drop: Chance=0/255
Steal Item: Chance=255/255
 COMMON 1x Dream Powder [2026h]
   RARE 2x Dream Powder [2026h]
Bribe Baseline: 12x Dream Powder [2026h]
Gear Drop: Chance=12/255
 Formula=1, Power=16, Crit=3%, Slots=1.75-3.5 [0Bh], Ability Rolls=1.125-2.0 [0Dh]
 Weapon AK: Piercing [800Bh] (Forced), Icestrike [8022h] (1/7), Lightningstrike [8026h] (1/7), Waterstrike [802Ah] (1/7), Distill Power [807Ch] (3/7), Firestrike [801Eh] (1/7)
        TYWLR: Icestrike [8022h] (1/7), Lightningstrike [8026h] (1/7), Waterstrike [802Ah] (1/7), Distill Power [807Ch] (3/7), Firestrike [801Eh] (1/7)
 Armor  TYAKWLR: Sleep Ward [8041h] (3/7), Silence Ward [8045h] (4/7)
Zanmato Level: 1
Stolen Gil: Up to 400
Monster Arena Price (Unused): 630
- Localized Strings -
Name: Skoll
- Sensor Text -
Very nimble. Resistant to magic. Watch out for {CLR:OL_CYAN}sleep{CLR:WHITE} and {CLR:OL_CYAN}silence{CLR:WHITE}.
- Scan Text -
Very nimble and hard to hit.{\n}Magic defense is also high.{\n}Defeat it quickly to avoid{\n}damage.{\n}Vulnerable to fire and lightning.{\n}Its attacks may cause {CLR:OL_CYAN}sleep{CLR:WHITE}{\n}and {CLR:OL_CYAN}silence{CLR:WHITE}.

--- src/main/resources/ffx_ps2/ffx/master/jppc/battle/mon/_m015/m015.bin ---
Bandersnatch [100Fh]
- Script Code -
0000 w00init:         3C                                               return;
0001 w00main:         D85F00                                           call Common.halt [005Fh]();
0004                  3C                                               return;
0005 w00e02s40t01p27: AE0000 AE0000 D85D70                             call Battle.btlSetBindEffect [705Dh](p1=0 [00h], p2=0 [00h]);
000E                  3C                                               return;
000F w01init:         AE9E00 AE2E01 D8AB70                             Set [70ABh] Self.stat_motion_type [9Eh] = [motion_type_attack_run_01, motion_type_attack_miss, motion_type_attack_return, motion_type_avoid_move, motion_type_move_back_jump] [012Eh];
0018                  AEA300 AE0100 D8AB70                             Set [70ABh] Self.stat_direction_change_effect [A3h] = 1 [01h];
0021                  AEA400 AE0000 D8AB70                             Set [70ABh] Self.stat_direction_fix_flag [A4h] = 0 [00h];
002A                  AE0000 AF0000 D8B270                             Set [70B2h] Self.motion_attack_start_dist [00h] = 30.0 [41F00000h];
0033                  AE0100 AF0100 D8B270                             Set [70B2h] Self.motion_attack_offset [01h] = 0.0 [00h];
003C                  AE0800 AF0100 D8B270                             Set [70B2h] Self.motion_attack_height [08h] = 0.0 [00h];
0045                  AE0200 AF0200 D8B270                             Set [70B2h] Self.motion_move_backjump_dist [02h] = -1.0 [BF800000h];
004E                  AE0300 AF0300 D8B270                             Set [70B2h] Self.motion_run_speed [03h] = 3.0 [40400000h];
0057                  AE0400 AF0400 D8B270                             Set [70B2h] Self.motion_run_speed_return [04h] = 2.5 [40200000h];
0060                  AE0500 AF0100 D8B270                             Set [70B2h] Self.motion_run_speed_v0 [05h] = 0.0 [00h];
0069                  AE0600 AF0500 D8B270                             Set [70B2h] Self.motion_run_speed_acc [06h] = 0.4 [3ECCCCCDh];
0072                  AE0700 AF0600 D8B270                             Set [70B2h] Self.motion_weight [07h] = 60.0 [42700000h];
007B                  AEDA00 AE0600 D8AB70                             Set [70ABh] Self.stat_round [DAh] = 6 [06h];
0084                  AEDB00 AE0600 D8AB70                             Set [70ABh] Self.stat_round_return [DBh] = 6 [06h];
008D                  AEE600 AE2000 D8AB70                             Set [70ABh] Self.stat_attack_inc_speed [E6h] = 32 [20h];
0096                  AEE700 AE2000 D8AB70                             Set [70ABh] Self.stat_attack_dec_speed [E7h] = 32 [20h];
009F                  AEE400 AE0400 D8AB70                             Set [70ABh] Self.stat_idle2_prob [E4h] = 4 [04h];
00A8                  AEEA00 AE3C00 D8AB70                             Set [70ABh] Self.stat_motion_num [EAh] = 60 [3Ch];
00B1                  AE7C00 AE1000 D8AB70                             Set [70ABh] Self.stat_attack_normal_frame [7Ch] = 16 [10h];
00BA                  AE1601 AE1000 D8AB70                             Set [70ABh] Self.stat_attack_near_frame [0116h] = 16 [10h];
00C3                  AE2301 AE0C00 D8AB70                             Set [70ABh] Self.stat_attack_motion_frame [0123h] = 12 [0Ch];
00CC                  AEF3FF AE4F00 AE0300 D81870                      Set [7018h] Self [FFF3h].DeathAnimation [4Fh] = Fiend (Pyrefly dissipation) [03h];
00D8                  3C                                               return;
00D9 w01main:         D85F00                                           call Common.halt [005Fh]();
00DC                  3C                                               return;
00DD w01e02onTurn:    AEF2FF AEECFF B51E70 D70000                      Check (Battle.countChrOverlap [701Eh](group=FrontlineChars [FFF2h], btlChr=AllAeons [FFECh])) else jump to j00 (0117)
00E9                  AEF2FF AE0800 B51E70 D70100                      Check (Battle.countChrOverlap [701Eh](group=FrontlineChars [FFF2h], btlChr=Valefor [08h])) else jump to j01 (00F9)
00F5                  3C                                               return;
00F6                  B00200                                           Jump to j02 (0114)
00F9 j01:             AEF2FF AE0400 AE0000 AE0000 B51070 A00300        Set priv0000 = Battle.findMatchingChr [7010h](group=FrontlineChars [FFF2h], property=isAlive [04h], unused=0 [00h], selector=Any/All [00h]);
010B                  9F0300 AE7F40 D80B70                             call Battle.performCommand [700Bh](target=priv0000, command="[Attack]" [407Fh]);
0114 j02:             B00300                                           Jump to j03 (0173)
0117 j00:             B5A900 AE0200 18 A00400                          Set priv0004 = Common.GetRandomValue [00A9h]() mod 2 [02h];
0121                  9F0400 AE0000 06 D70400                          Check (priv0004 == 0 [00h]) else jump to j04 (0158)
012B                  AEF2FF AE0400 AE0000 AE0000 D81070               call Battle.findMatchingChr [7010h](group=FrontlineChars [FFF2h], property=isAlive [04h], unused=0 [00h], selector=Any/All [00h]);
013A                  AEF0FF AE0000 AE0000 AE0200 B51070 A00300        Set priv0000 = Battle.findMatchingChr [7010h](group=MatchingGroup [FFF0h], property=HP [00h], unused=0 [00h], selector=Lowest [02h]);
014C                  9F0300 AE9F40 D80B70                             call Battle.performCommand [700Bh](target=priv0000, command="[Attack]" [409Fh]);
0155                  B00500                                           Jump to j05 (0173)
0158 j04:             AEF2FF AE0400 AE0000 AE0000 B51070 A00300        Set priv0000 = Battle.findMatchingChr [7010h](group=FrontlineChars [FFF2h], property=isAlive [04h], unused=0 [00h], selector=Any/All [00h]);
016A                  9F0300 AE9F40 D80B70                             call Battle.performCommand [700Bh](target=priv0000, command="[Attack]" [409Fh]);
0173 j03,j05:         3C                                               return;
0174 w01e03onHit:     3C                                               return;
0175 w01e04preTurn:   3C                                               return;
0176 w01e05onTargeted: 3C                                              return;
0177 w01e06onDeath:   3C                                               return;
0178 w02init:         3C                                               return;
0179 w02main:         D85F00                                           call Common.halt [005Fh]();
017C                  3C                                               return;
017D w02e02?BattleCam1A: D81660                                        call Camera.camResetMove [6016h]();
0180                  D83460                                           call Camera.refResetMove [6034h]();
0183                  AEEDFF AEFDFF B51E70 19 D70000                   Check (!Battle.countChrOverlap [701Eh](group=CHR_ALL_PLY2 [FFEDh], btlChr=TargetChrs [FFFDh])) else jump to j00 (019A)
0190                  AE0100 AE1C00 D83F70                             call Battle.camReq [703Fh](p1=1 [01h], p2=28 [1Ch]);
0199                  3C                                               return;
019A j00:             AEFEFF B57A70 AE0100 06 D70100                   Check (Battle.btlGetCalcResult [707Ah](btlChr=ActiveChrs [FFFEh]) == 1 [01h]) else jump to j01 (01B1)
01A7                  AE0100 AE1C00 D83F70                             call Battle.camReq [703Fh](p1=1 [01h], p2=28 [1Ch]);
01B0                  3C                                               return;
01B1 j01:             AEFEFF B5B070 A00000                             Set battleVar0094 = Battle.btlDistTargetFrame2 [70B0h](p1=-2 [FFFEh]);
01BA j02:             AE0000 B58060 AE0300 18 59                       Set tmpI0 = Camera.camRand [6080h](p1=0 [00h]) mod 3 [03h];
01C5                  67 9F0100 06 D60200                              (tmpI0 == battleVar00F4) -> j02 (01BA)
01CD                  67 A00100                                        Set battleVar00F4 = tmpI0;
01D1                  9F0100 2C                                        switch battleVar00F4
01D5                  B00300                                           Jump to j03 (03F4)
01D8 j05:             AEFEFF AEF2FF B51E70 D70600                      Check (Battle.countChrOverlap [701Eh](group=ActiveChrs [FFFEh], btlChr=FrontlineChars [FFF2h])) else jump to j06 (01F0)
01E4                  AEFEFF B5A170 A00200                             Set battleVar0288 = Battle.dereferenceEnemy [70A1h](btlChr=ActiveChrs [FFFEh]);
01ED                  B00700                                           Jump to j07 (01F9)
01F0 j06:             AEFDFF B5A170 A00200                             Set battleVar0288 = Battle.dereferenceEnemy [70A1h](btlChr=TargetChrs [FFFDh]);
01F9 j07:             9F0200 2C                                        switch battleVar0288
01FD                  B00800                                           Jump to j08 (021B)
0200 j0A:             AEF9FF AED800 AE0000 D81870                      Set [7018h] Character#2 [FFF9h].stat_visible_cam [D8h] = 0 [00h];
020C j0B:             AEFAFF AED800 AE0000 D81870                      Set [7018h] Character#1 [FFFAh].stat_visible_cam [D8h] = 0 [00h];
0218                  B00900                                           Jump to j09 (022B)
021B j08:             AEF8FF 29 06 D60A00                              (Character#3 [FFF8h] == case) -> j0A (0200)
0223                  AEF9FF 29 06 D60B00                              (Character#2 [FFF9h] == case) -> j0B (020C)
022B j09:             B52470 2C                                        switch Battle.CurrentEncounter [7024h]
022F                  B00C00                                           Jump to j0C (02F2)
0232 j0E,j0F,j10,j11,j12,j13,j14,j15,j16,j17,j18: B00D00               Jump to j0D (034D)
0235 j19:             AEFEFF AEF1FF B51E70 D71A00                      Check (Battle.countChrOverlap [701Eh](group=ActiveChrs [FFFEh], btlChr=AllMonsters [FFF1h])) else jump to j1A (024D)
0241                  AEFEFF B5A170 A00200                             Set battleVar0288 = Battle.dereferenceEnemy [70A1h](btlChr=ActiveChrs [FFFEh]);
024A                  B01B00                                           Jump to j1B (0256)
024D j1A:             AEFDFF B5A170 A00200                             Set battleVar0288 = Battle.dereferenceEnemy [70A1h](btlChr=TargetChrs [FFFDh]);
0256 j1B:             9F0200 B52170 2C                                 switch Battle.dereferenceCharacter [7021h](btlChr=battleVar0288)
025D                  B01C00                                           Jump to j1C (02AC)
0260 j1E,j1F,j20,j21,j22,j23,j24,j25: B01D00                           Jump to j1D (02EF)
0263 j26:             9F0200 2C                                        switch battleVar0288
0267                  B02700                                           Jump to j27 (0291)
026A j29:             AE1600 AED800 AE0000 D81870                      Set [7018h] Monster#02 [16h].stat_visible_cam [D8h] = 0 [00h];
0276 j2A:             AE1500 AED800 AE0000 D81870                      Set [7018h] Monster#01 [15h].stat_visible_cam [D8h] = 0 [00h];
0282 j2B:             AE1400 AED800 AE0000 D81870                      Set [7018h] Monster#00 [14h].stat_visible_cam [D8h] = 0 [00h];
028E                  B02800                                           Jump to j28 (02A9)
0291 j27:             AE1700 29 06 D62900                              (Monster#03 [17h] == case) -> j29 (026A)
0299                  AE1600 29 06 D62A00                              (Monster#02 [16h] == case) -> j2A (0276)
02A1                  AE1500 29 06 D62B00                              (Monster#01 [15h] == case) -> j2B (0282)
02A9 j28:             B01D00                                           Jump to j1D (02EF)
02AC j1C:             AE7510 29 06 D61E00                              (Actors:MonsterType=m117 (Sinspawn Gui) [1075h] == case) -> j1E (0260)
02B4                  AEA010 29 06 D61F00                              (Actors:MonsterType=m160 (Head) [10A0h] == case) -> j1F (0260)
02BC                  AEA110 29 06 D62000                              (Actors:MonsterType=m161 (Arm) [10A1h] == case) -> j20 (0260)
02C4                  AE1811 29 06 D62100                              (Actors:MonsterType=m280 (Ultima Buster) [1118h] == case) -> j21 (0260)
02CC                  AE1011 29 06 D62200                              (Actors:MonsterType=m272 (Head) [1110h] == case) -> j22 (0260)
02D4                  AE1111 29 06 D62300                              (Actors:MonsterType=m273 (Arm) [1111h] == case) -> j23 (0260)
02DC                  AECA10 29 06 D62400                              (Actors:MonsterType=m202 (Magic Urn) [10CAh] == case) -> j24 (0260)
02E4                  AEFF10 29 06 D62500                              (Actors:MonsterType=m255 (Magic Urn) [10FFh] == case) -> j25 (0260)
02EC                  B02600                                           Jump to j26 (0263)
02EF j1D:             B00D00                                           Jump to j0D (034D)
02F2 j0C:             AD0000 29 06 D60E00                              (kino02_00 [00DE0000h] == case) -> j0E (0232)
02FA                  AD0100 29 06 D60F00                              (kino03_10 [00DF000Ah] == case) -> j0F (0232)
0302                  AD0200 29 06 D61000                              (stbv01_10 [0196000Ah] == case) -> j10 (0232)
030A                  AD0300 29 06 D61100                              (mtgz02_00 [01E70000h] == case) -> j11 (0232)
0312                  AD0400 29 06 D61200                              (klyt01_00 [00840000h] == case) -> j12 (0232)
031A                  AD0500 29 06 D61300                              (dome02_00 [02050000h] == case) -> j13 (0232)
0322                  AD0600 29 06 D61400                              (stbv00_10 [0195000Ah] == case) -> j14 (0232)
032A                  AD0700 29 06 D61500                              (stbv00_11 [0195000Bh] == case) -> j15 (0232)
0332                  AD0800 29 06 D61600                              (ssbt00_00 [02350000h] == case) -> j16 (0232)
033A                  AD0900 29 06 D61700                              (ssbt01_00 [02360000h] == case) -> j17 (0232)
0342                  AD0A00 29 06 D61800                              (ssbt03_00 [02380000h] == case) -> j18 (0232)
034A                  B01900                                           Jump to j19 (0235)
034D j0D:             AEFEFF AEFFFF AF0700 AF0800 AF0100 AF0900 D84160 call Camera.refSetBtlPolar [6041h](p1=-2 [FFFEh], p2=-1 [FFFFh], p3=74.00002 [42940003h], p4=19.999992 [419FFFFCh], p5=0.0 [00h], p6=-100.00015 [C2C80014h]);
0362                  AEFEFF AEFFFF AF0A00 AF0C00 AF0100 AF0B00 D84460 call Camera.camSetBtlPolar2 [6044h](p1=-2 [FFFEh], p2=-1 [FFFFh], p3=11.999998 [413FFFFEh], p4=-99.0 [C2C60000h], p5=0.0 [00h], p6=207.99998 [434FFFFFh]);
0377                  AF0100 D83A60                                    call Camera.camSetRoll [603Ah](p1=0.0 [00h]);
037D                  AF0D00 D83B60                                    call Camera.camSetScrDpt [603Bh](p1=550.0 [44098000h]);
0383                  9F0000 D80000                                    call Common.wait [0000h](frames=battleVar0094);
0389                  AE1400 D80000                                    call Common.wait [0000h](frames=20 [14h]);
038F                  D81660                                           call Camera.camResetMove [6016h]();
0392                  D83460                                           call Camera.refResetMove [6034h]();
0395                  3C                                               return;
0396 j2C:             AEFEFF AEFFFF AF0E00 AF0800 AF0100 AF0F00 D84160 call Camera.refSetBtlPolar [6041h](p1=-2 [FFFEh], p2=-1 [FFFFh], p3=95.000046 [42BE0006h], p4=19.999992 [419FFFFCh], p5=0.0 [00h], p6=-1.33E-4 [B90B75EAh]);
03AB                  AEFEFF AEFFFF AF1000 AF1100 AF0100 AF1200 D84460 call Camera.camSetBtlPolar2 [6044h](p1=-2 [FFFEh], p2=-1 [FFFFh], p3=119.99999 [42EFFFFFh], p4=18.999977 [4197FFF4h], p5=0.0 [00h], p6=179.0 [43330000h]);
03C0                  AF0100 D83A60                                    call Camera.camSetRoll [603Ah](p1=0.0 [00h]);
03C6                  AF1300 D83B60                                    call Camera.camSetScrDpt [603Bh](p1=824.0 [444E0000h]);
03CC                  9F0000 AE0400 17 AE0300 16 D80000                call Common.wait [0000h](frames=(battleVar0094 / 4 [04h]) * 3 [03h]);
03DA                  D81660                                           call Camera.camResetMove [6016h]();
03DD                  AE1400 D80000                                    call Common.wait [0000h](frames=20 [14h]);
03E3                  D83460                                           call Camera.refResetMove [6034h]();
03E6                  3C                                               return;
03E7 j2D,j2E:         AE0100 AE1C00 D83F70                             call Battle.camReq [703Fh](p1=1 [01h], p2=28 [1Ch]);
03F0                  3C                                               return;
03F1                  B00400                                           Jump to j04 (0414)
03F4 j03:             AE0000 29 06 D60500                              (0 [00h] == case) -> j05 (01D8)
03FC                  AE0100 29 06 D62C00                              (1 [01h] == case) -> j2C (0396)
0404                  AE0200 29 06 D62D00                              (2 [02h] == case) -> j2D (03E7)
040C                  AE0300 29 06 D62E00                              (3 [03h] == case) -> j2E (03E7)
0414 j04:             3C                                               return;
- Script Workers -
Script Code Start Address: 0190
Creator: keisuke
3 Workers Total
w00: { Battle, Type=MotionHandler [01h], PurposeSlot=battleWorkerSlot:64 [40h], Entrypoints=3 [03h], Jumps=0 [00h], privateData addr=0000 len=00 }
w01: { Battle, Type=CombatHandler [02h], PurposeSlot=MonsterAi [3Dh], Entrypoints=7 [07h], Jumps=6 [06h], privateData addr=0000 len=08 }
w02: { Battle, Type=CameraHandler [00h], PurposeSlot=?BattleCameras [00h], Entrypoints=3 [03h], Jumps=47 [2Fh], privateData addr=0000 len=00 }
Variables (5 at offset 00EC)
Variable 00: battleVar0094 { battleVars[0094], type=int (int32) } [0000000152000094h]
Variable 01: battleVar00F4 { battleVars[00F4], type=int (int32) } [00000001520000F4h]
Variable 02: battleVar0288 { battleVars[0288], type=btlChr (int32) } [0000000152000288h]
Variable 03: priv+0000 { private[0000], type=btlChr (int32) } [0000000156000000h]
Variable 04: priv+0004 { private[0004], type=int (int32) } [0000000156000004h]
- Monster Stats -
HP=1800 MP=75 Overkill=2700
STR=32 DEF=0 MAG=0 MDF=180
AGI=32 LCK=15 EVA=11 ACC=0
Element Affinities: Weak=[Fire]
Status Resists: Sleep/Silence/Darkness (20%), Auto-Life (Immune)
Threaten Base Chance=100%
Poison Damage=25%
Ability List: [Attack] [409Fh]
Forced Action: [Attack] [4000h]
Doom Counter=1
CTB Icon Type=Monster [14h]
Captured Monster Index=14 [0Eh]
Model/Motion Base=mon/m010 (Wolf) [100Ah]
Sound Bank=m009 (Dingo) [1009h]
- Monster Loot -
Gil=880
AP Normal=820 Overkill=1640
No Ronso Rage
Primary Item Drop: Chance=255/255
 COMMON Normal 1x Power Sphere [2046h]; Overkill 2x Power Sphere [2046h]
   RARE Normal 1x Power Sphere [2046h]; Overkill 2x Power Sphere [2046h]
Secondary Item Drop: Chance=0/255
Steal Item: Chance=255/255
 COMMON 2x Dream Powder [2026h]
   RARE 3x Dream Powder [2026h]
Bribe Baseline: 20x Dream Powder [2026h]
Gear Drop: Chance=12/255
 Formula=1, Power=16, Crit=3%, Slots=2.0-3.75 [0Ch], Ability Rolls=1.25-2.125 [0Eh]
 Weapon AK: Piercing [800Bh] (Forced), Icestrike [8022h] (1/7), Lightningstrike [8026h] (1/7), Waterstrike [802Ah] (1/7), Distill Power [807Ch] (3/7), Firestrike [801Eh] (1/7)
        TYWLR: Icestrike [8022h] (1/7), Lightningstrike [8026h] (1/7), Waterstrike [802Ah] (1/7), Distill Power [807Ch] (3/7), Firestrike [801Eh] (1/7)
 Armor  TYAKWLR: Sleep Ward [8041h] (3/7), Silence Ward [8045h] (4/7)
Zanmato Level: 1
Stolen Gil: Up to 800
Monster Arena Price (Unused): 1320
- Localized Strings -
Name: Bandersnatch
- Sensor Text -
Very nimble. Resistant to magic. Watch out for {CLR:OL_CYAN}sleep{CLR:WHITE} and {CLR:OL_CYAN}silence{CLR:WHITE}.
- Scan Text -
Very nimble and hard to hit.{\n}Magic defense is also high.{\n}Defeat it quickly to avoid{\n}damage.{\n}Vulnerable to fire.{\n}Its attacks may cause {CLR:OL_CYAN}sleep{CLR:WHITE}{\n}and {CLR:OL_CYAN}silence{CLR:WHITE}.

--- src/main/resources/ffx_ps2/ffx/master/jppc/battle/mon/_m231/m231.bin ---
Dingo [10E7h]
- Script Code -
0000 w00init:         3C                                               return;
0001 w00main:         D85F00                                           call Common.halt [005Fh]();
0004                  3C                                               return;
0005 w00e02s40t01p27: AE0000 AE0000 D85D70                             call Battle.btlSetBindEffect [705Dh](p1=0 [00h], p2=0 [00h]);
000E                  3C                                               return;
000F w01init:         AE9E00 AE2E01 D8AB70                             Set [70ABh] Self.stat_motion_type [9Eh] = [motion_type_attack_run_01, motion_type_attack_miss, motion_type_attack_return, motion_type_avoid_move, motion_type_move_back_jump] [012Eh];
0018                  AEA300 AE0100 D8AB70                             Set [70ABh] Self.stat_direction_change_effect [A3h] = 1 [01h];
0021                  AEA400 AE0000 D8AB70                             Set [70ABh] Self.stat_direction_fix_flag [A4h] = 0 [00h];
002A                  AE0000 AF0000 D8B270                             Set [70B2h] Self.motion_attack_start_dist [00h] = 30.0 [41F00000h];
0033                  AE0100 AF0100 D8B270                             Set [70B2h] Self.motion_attack_offset [01h] = 0.0 [00h];
003C                  AE0800 AF0100 D8B270                             Set [70B2h] Self.motion_attack_height [08h] = 0.0 [00h];
0045                  AE0200 AF0200 D8B270                             Set [70B2h] Self.motion_move_backjump_dist [02h] = -1.0 [BF800000h];
004E                  AE0300 AF0300 D8B270                             Set [70B2h] Self.motion_run_speed [03h] = 3.0 [40400000h];
0057                  AE0400 AF0400 D8B270                             Set [70B2h] Self.motion_run_speed_return [04h] = 2.5 [40200000h];
0060                  AE0500 AF0100 D8B270                             Set [70B2h] Self.motion_run_speed_v0 [05h] = 0.0 [00h];
0069                  AE0600 AF0500 D8B270                             Set [70B2h] Self.motion_run_speed_acc [06h] = 0.4 [3ECCCCCDh];
0072                  AE0700 AF0600 D8B270                             Set [70B2h] Self.motion_weight [07h] = 60.0 [42700000h];
007B                  AEDA00 AE0600 D8AB70                             Set [70ABh] Self.stat_round [DAh] = 6 [06h];
0084                  AEDB00 AE0600 D8AB70                             Set [70ABh] Self.stat_round_return [DBh] = 6 [06h];
008D                  AEE600 AE2000 D8AB70                             Set [70ABh] Self.stat_attack_inc_speed [E6h] = 32 [20h];
0096                  AEE700 AE2000 D8AB70                             Set [70ABh] Self.stat_attack_dec_speed [E7h] = 32 [20h];
009F                  AEE400 AE0400 D8AB70                             Set [70ABh] Self.stat_idle2_prob [E4h] = 4 [04h];
00A8                  AEEA00 AE3C00 D8AB70                             Set [70ABh] Self.stat_motion_num [EAh] = 60 [3Ch];
00B1                  AE7C00 AE1000 D8AB70                             Set [70ABh] Self.stat_attack_normal_frame [7Ch] = 16 [10h];
00BA                  AE1601 AE1000 D8AB70                             Set [70ABh] Self.stat_attack_near_frame [0116h] = 16 [10h];
00C3                  AE2301 AE0C00 D8AB70                             Set [70ABh] Self.stat_attack_motion_frame [0123h] = 12 [0Ch];
00CC                  AEF3FF AE4F00 AE0300 D81870                      Set [7018h] Self [FFF3h].DeathAnimation [4Fh] = Fiend (Pyrefly dissipation) [03h];
00D8                  3C                                               return;
00D9 w01main:         D85F00                                           call Common.halt [005Fh]();
00DC                  3C                                               return;
00DD w01e02onTurn:    AEF2FF AEECFF B51E70 D70000                      Check (Battle.countChrOverlap [701Eh](group=FrontlineChars [FFF2h], btlChr=AllAeons [FFECh])) else jump to j00 (0117)
00E9                  AEF2FF AE0800 B51E70 D70100                      Check (Battle.countChrOverlap [701Eh](group=FrontlineChars [FFF2h], btlChr=Valefor [08h])) else jump to j01 (00F9)
00F5                  3C                                               return;
00F6                  B00200                                           Jump to j02 (0114)
00F9 j01:             AEF2FF AE0400 AE0000 AE0000 B51070 A00400        Set priv0000 = Battle.findMatchingChr [7010h](group=FrontlineChars [FFF2h], property=isAlive [04h], unused=0 [00h], selector=Any/All [00h]);
010B                  9F0400 AE9E40 D80B70                             call Battle.performCommand [700Bh](target=priv0000, command="[Attack]" [409Eh]);
0114 j02:             B00300                                           Jump to j03 (0173)
0117 j00:             B5A900 AE0200 18 A00500                          Set priv0004 = Common.GetRandomValue [00A9h]() mod 2 [02h];
0121                  9F0500 AE0000 06 D70400                          Check (priv0004 == 0 [00h]) else jump to j04 (0158)
012B                  AEF2FF AE0400 AE0000 AE0000 D81070               call Battle.findMatchingChr [7010h](group=FrontlineChars [FFF2h], property=isAlive [04h], unused=0 [00h], selector=Any/All [00h]);
013A                  AEF0FF AE0000 AE0000 AE0200 B51070 A00400        Set priv0000 = Battle.findMatchingChr [7010h](group=MatchingGroup [FFF0h], property=HP [00h], unused=0 [00h], selector=Lowest [02h]);
014C                  9F0400 AE9E40 D80B70                             call Battle.performCommand [700Bh](target=priv0000, command="[Attack]" [409Eh]);
0155                  B00500                                           Jump to j05 (0173)
0158 j04:             AEF2FF AE0400 AE0000 AE0000 B51070 A00400        Set priv0000 = Battle.findMatchingChr [7010h](group=FrontlineChars [FFF2h], property=isAlive [04h], unused=0 [00h], selector=Any/All [00h]);
016A                  9F0400 AE9E40 D80B70                             call Battle.performCommand [700Bh](target=priv0000, command="[Attack]" [409Eh]);
0173 j03,j05:         3C                                               return;
0174 w01e03onHit:     B5E070 D70600                                    Check (Battle.isCounterattackAllowed [70E0h]()) else jump to j06 (01A9)
017A                  AEF3FF AEA600 B50F70 AE0000 0A D70700            Check ([700Fh] Self [FFF3h].LastDamageTakenHP [A6h] > 0 [00h]) else jump to j07 (01A9)
018A                  B52470 A00600                                    Set priv0008 = Battle.CurrentEncounter [7024h];
0190                  9F0600 AD0000 06 D70800                          Check (priv0008 == bsil05_52 [00460034h]) else jump to j08 (01A9)
019A                  AEEFFF B52170 A00000                             Set battleVar0014 = Battle.dereferenceCharacter [7021h](btlChr=LastAttacker [FFEFh]);
01A3                  AE0000 D89770                                    call Battle.runBtlSceneB [7097h](btlScene=0 [00h]);
01A9 j06,j07,j08:     3C                                               return;
01AA w01e04preTurn:   3C                                               return;
01AB w01e05onTargeted: 3C                                              return;
01AC w01e06onDeath:   B52470 A00600                                    Set priv0008 = Battle.CurrentEncounter [7024h];
01B2                  9F0600 AD0100 06 D70900                          Check (priv0008 == bsil07_50 [00480032h]) else jump to j09 (01FE)
01BC                  AE1500 AE5100 AE0100 D81870                      Set [7018h] Monster#01 [15h].GetsTurns [51h] = true [01h];
01C8                  AE1500 AE5200 AE0100 D81870                      Set [7018h] Monster#01 [15h].Targetable [52h] = true [01h];
01D4                  AE1500 AE5300 AE0100 D81870                      Set [7018h] Monster#01 [15h].VisibleOnCTB [53h] = true [01h];
01E0                  AE0400 AE5100 AE0100 D81870                      Set [7018h] Wakka [04h].GetsTurns [51h] = true [01h];
01EC                  AE0400 AE5300 AE0100 D81870                      Set [7018h] Wakka [04h].VisibleOnCTB [53h] = true [01h];
01F8                  AE0100 D83C70                                    call Battle.runBtlSceneA [703Ch](btlScene=1 [01h]);
01FE j09:             3C                                               return;
01FF w02init:         3C                                               return;
0200 w02main:         D85F00                                           call Common.halt [005Fh]();
0203                  3C                                               return;
0204 w02e02?BattleCam1A: D81660                                        call Camera.camResetMove [6016h]();
0207                  D83460                                           call Camera.refResetMove [6034h]();
020A                  AEEDFF AEFDFF B51E70 19 D70000                   Check (!Battle.countChrOverlap [701Eh](group=CHR_ALL_PLY2 [FFEDh], btlChr=TargetChrs [FFFDh])) else jump to j00 (0221)
0217                  AE0100 AE1C00 D83F70                             call Battle.camReq [703Fh](p1=1 [01h], p2=28 [1Ch]);
0220                  3C                                               return;
0221 j00:             AEFEFF B57A70 AE0100 06 D70100                   Check (Battle.btlGetCalcResult [707Ah](btlChr=ActiveChrs [FFFEh]) == 1 [01h]) else jump to j01 (0238)
022E                  AE0100 AE1C00 D83F70                             call Battle.camReq [703Fh](p1=1 [01h], p2=28 [1Ch]);
0237                  3C                                               return;
0238 j01:             AEFEFF B5B070 A00100                             Set battleVar0094 = Battle.btlDistTargetFrame2 [70B0h](p1=-2 [FFFEh]);
0241 j02:             AE0000 B58060 AE0300 18 59                       Set tmpI0 = Camera.camRand [6080h](p1=0 [00h]) mod 3 [03h];
024C                  67 9F0200 06 D60200                              (tmpI0 == battleVar00F4) -> j02 (0241)
0254                  67 A00200                                        Set battleVar00F4 = tmpI0;
0258                  9F0200 2C                                        switch battleVar00F4
025C                  B00300                                           Jump to j03 (047B)
025F j05:             AEFEFF AEF2FF B51E70 D70600                      Check (Battle.countChrOverlap [701Eh](group=ActiveChrs [FFFEh], btlChr=FrontlineChars [FFF2h])) else jump to j06 (0277)
026B                  AEFEFF B5A170 A00300                             Set battleVar0288 = Battle.dereferenceEnemy [70A1h](btlChr=ActiveChrs [FFFEh]);
0274                  B00700                                           Jump to j07 (0280)
0277 j06:             AEFDFF B5A170 A00300                             Set battleVar0288 = Battle.dereferenceEnemy [70A1h](btlChr=TargetChrs [FFFDh]);
0280 j07:             9F0300 2C                                        switch battleVar0288
0284                  B00800                                           Jump to j08 (02A2)
0287 j0A:             AEF9FF AED800 AE0000 D81870                      Set [7018h] Character#2 [FFF9h].stat_visible_cam [D8h] = 0 [00h];
0293 j0B:             AEFAFF AED800 AE0000 D81870                      Set [7018h] Character#1 [FFFAh].stat_visible_cam [D8h] = 0 [00h];
029F                  B00900                                           Jump to j09 (02B2)
02A2 j08:             AEF8FF 29 06 D60A00                              (Character#3 [FFF8h] == case) -> j0A (0287)
02AA                  AEF9FF 29 06 D60B00                              (Character#2 [FFF9h] == case) -> j0B (0293)
02B2 j09:             B52470 2C                                        switch Battle.CurrentEncounter [7024h]
02B6                  B00C00                                           Jump to j0C (0379)
02B9 j0E,j0F,j10,j11,j12,j13,j14,j15,j16,j17,j18: B00D00               Jump to j0D (03D4)
02BC j19:             AEFEFF AEF1FF B51E70 D71A00                      Check (Battle.countChrOverlap [701Eh](group=ActiveChrs [FFFEh], btlChr=AllMonsters [FFF1h])) else jump to j1A (02D4)
02C8                  AEFEFF B5A170 A00300                             Set battleVar0288 = Battle.dereferenceEnemy [70A1h](btlChr=ActiveChrs [FFFEh]);
02D1                  B01B00                                           Jump to j1B (02DD)
02D4 j1A:             AEFDFF B5A170 A00300                             Set battleVar0288 = Battle.dereferenceEnemy [70A1h](btlChr=TargetChrs [FFFDh]);
02DD j1B:             9F0300 B52170 2C                                 switch Battle.dereferenceCharacter [7021h](btlChr=battleVar0288)
02E4                  B01C00                                           Jump to j1C (0333)
02E7 j1E,j1F,j20,j21,j22,j23,j24,j25: B01D00                           Jump to j1D (0376)
02EA j26:             9F0300 2C                                        switch battleVar0288
02EE                  B02700                                           Jump to j27 (0318)
02F1 j29:             AE1600 AED800 AE0000 D81870                      Set [7018h] Monster#02 [16h].stat_visible_cam [D8h] = 0 [00h];
02FD j2A:             AE1500 AED800 AE0000 D81870                      Set [7018h] Monster#01 [15h].stat_visible_cam [D8h] = 0 [00h];
0309 j2B:             AE1400 AED800 AE0000 D81870                      Set [7018h] Monster#00 [14h].stat_visible_cam [D8h] = 0 [00h];
0315                  B02800                                           Jump to j28 (0330)
0318 j27:             AE1700 29 06 D62900                              (Monster#03 [17h] == case) -> j29 (02F1)
0320                  AE1600 29 06 D62A00                              (Monster#02 [16h] == case) -> j2A (02FD)
0328                  AE1500 29 06 D62B00                              (Monster#01 [15h] == case) -> j2B (0309)
0330 j28:             B01D00                                           Jump to j1D (0376)
0333 j1C:             AE7510 29 06 D61E00                              (Actors:MonsterType=m117 (Sinspawn Gui) [1075h] == case) -> j1E (02E7)
033B                  AEA010 29 06 D61F00                              (Actors:MonsterType=m160 (Head) [10A0h] == case) -> j1F (02E7)
0343                  AEA110 29 06 D62000                              (Actors:MonsterType=m161 (Arm) [10A1h] == case) -> j20 (02E7)
034B                  AE1811 29 06 D62100                              (Actors:MonsterType=m280 (Ultima Buster) [1118h] == case) -> j21 (02E7)
0353                  AE1011 29 06 D62200                              (Actors:MonsterType=m272 (Head) [1110h] == case) -> j22 (02E7)
035B                  AE1111 29 06 D62300                              (Actors:MonsterType=m273 (Arm) [1111h] == case) -> j23 (02E7)
0363                  AECA10 29 06 D62400                              (Actors:MonsterType=m202 (Magic Urn) [10CAh] == case) -> j24 (02E7)
036B                  AEFF10 29 06 D62500                              (Actors:MonsterType=m255 (Magic Urn) [10FFh] == case) -> j25 (02E7)
0373                  B02600                                           Jump to j26 (02EA)
0376 j1D:             B00D00                                           Jump to j0D (03D4)
0379 j0C:             AD0200 29 06 D60E00                              (kino02_00 [00DE0000h] == case) -> j0E (02B9)
0381                  AD0300 29 06 D60F00                              (kino03_10 [00DF000Ah] == case) -> j0F (02B9)
0389                  AD0400 29 06 D61000                              (stbv01_10 [0196000Ah] == case) -> j10 (02B9)
0391                  AD0500 29 06 D61100                              (mtgz02_00 [01E70000h] == case) -> j11 (02B9)
0399                  AD0600 29 06 D61200                              (klyt01_00 [00840000h] == case) -> j12 (02B9)
03A1                  AD0700 29 06 D61300                              (dome02_00 [02050000h] == case) -> j13 (02B9)
03A9                  AD0800 29 06 D61400                              (stbv00_10 [0195000Ah] == case) -> j14 (02B9)
03B1                  AD0900 29 06 D61500                              (stbv00_11 [0195000Bh] == case) -> j15 (02B9)
03B9                  AD0A00 29 06 D61600                              (ssbt00_00 [02350000h] == case) -> j16 (02B9)
03C1                  AD0B00 29 06 D61700                              (ssbt01_00 [02360000h] == case) -> j17 (02B9)
03C9                  AD0C00 29 06 D61800                              (ssbt03_00 [02380000h] == case) -> j18 (02B9)
03D1                  B01900                                           Jump to j19 (02BC)
03D4 j0D:             AEFEFF AEFFFF AF0700 AF0800 AF0100 AF0900 D84160 call Camera.refSetBtlPolar [6041h](p1=-2 [FFFEh], p2=-1 [FFFFh], p3=74.00002 [42940003h], p4=19.999992 [419FFFFCh], p5=0.0 [00h], p6=-100.00015 [C2C80014h]);
03E9                  AEFEFF AEFFFF AF0A00 AF0C00 AF0100 AF0B00 D84460 call Camera.camSetBtlPolar2 [6044h](p1=-2 [FFFEh], p2=-1 [FFFFh], p3=11.999998 [413FFFFEh], p4=-99.0 [C2C60000h], p5=0.0 [00h], p6=207.99998 [434FFFFFh]);
03FE                  AF0100 D83A60                                    call Camera.camSetRoll [603Ah](p1=0.0 [00h]);
0404                  AF0D00 D83B60                                    call Camera.camSetScrDpt [603Bh](p1=550.0 [44098000h]);
040A                  9F0100 D80000                                    call Common.wait [0000h](frames=battleVar0094);
0410                  AE1400 D80000                                    call Common.wait [0000h](frames=20 [14h]);
0416                  D81660                                           call Camera.camResetMove [6016h]();
0419                  D83460                                           call Camera.refResetMove [6034h]();
041C                  3C                                               return;
041D j2C:             AEFEFF AEFFFF AF0E00 AF0800 AF0100 AF0F00 D84160 call Camera.refSetBtlPolar [6041h](p1=-2 [FFFEh], p2=-1 [FFFFh], p3=95.000046 [42BE0006h], p4=19.999992 [419FFFFCh], p5=0.0 [00h], p6=-1.33E-4 [B90B75EAh]);
0432                  AEFEFF AEFFFF AF1000 AF1100 AF0100 AF1200 D84460 call Camera.camSetBtlPolar2 [6044h](p1=-2 [FFFEh], p2=-1 [FFFFh], p3=119.99999 [42EFFFFFh], p4=18.999977 [4197FFF4h], p5=0.0 [00h], p6=179.0 [43330000h]);
0447                  AF0100 D83A60                                    call Camera.camSetRoll [603Ah](p1=0.0 [00h]);
044D                  AF1300 D83B60                                    call Camera.camSetScrDpt [603Bh](p1=824.0 [444E0000h]);
0453                  9F0100 AE0400 17 AE0300 16 D80000                call Common.wait [0000h](frames=(battleVar0094 / 4 [04h]) * 3 [03h]);
0461                  D81660                                           call Camera.camResetMove [6016h]();
0464                  AE1400 D80000                                    call Common.wait [0000h](frames=20 [14h]);
046A                  D83460                                           call Camera.refResetMove [6034h]();
046D                  3C                                               return;
046E j2D,j2E:         AE0100 AE1C00 D83F70                             call Battle.camReq [703Fh](p1=1 [01h], p2=28 [1Ch]);
0477                  3C                                               return;
0478                  B00400                                           Jump to j04 (049B)
047B j03:             AE0000 29 06 D60500                              (0 [00h] == case) -> j05 (025F)
0483                  AE0100 29 06 D62C00                              (1 [01h] == case) -> j2C (041D)
048B                  AE0200 29 06 D62D00                              (2 [02h] == case) -> j2D (046E)
0493                  AE0300 29 06 D62E00                              (3 [03h] == case) -> j2E (046E)
049B j04:             3C                                               return;
- Script Workers -
Script Code Start Address: 01A8
Creator: tuchi
3 Workers Total
w00: { Battle, Type=MotionHandler [01h], PurposeSlot=battleWorkerSlot:64 [40h], Entrypoints=3 [03h], Jumps=0 [00h], privateData addr=0000 len=00 }
w01: { Battle, Type=CombatHandler [02h], PurposeSlot=MonsterAi [3Dh], Entrypoints=7 [07h], Jumps=10 [0Ah], privateData addr=0000 len=0C }
w02: { Battle, Type=CameraHandler [00h], PurposeSlot=?BattleCameras [00h], Entrypoints=3 [03h], Jumps=47 [2Fh], privateData addr=0000 len=00 }
Variables (7 at offset 00EC)
Variable 00: battleVar0014 { battleVars[0014], type=btlChr (int32) } [0000000152000014h]
Variable 01: battleVar0094 { battleVars[0094], type=int (int32) } [0000000152000094h]
Variable 02: battleVar00F4 { battleVars[00F4], type=int (int32) } [00000001520000F4h]
Variable 03: battleVar0288 { battleVars[0288], type=btlChr (int32) } [0000000152000288h]
Variable 04: priv+0000 { private[0000], type=btlChr (int32) } [0000000156000000h]
Variable 05: priv+0004 { private[0004], type=int (int32) } [0000000156000004h]
Variable 06: priv+0008 { private[0008], type=encounter (int32) } [0000000156000008h]
- Monster Stats -
HP=125 MP=10 Overkill=188
STR=13 DEF=0 MAG=0 MDF=120
AGI=10 LCK=15 EVA=5 ACC=0
Immune to Bribe
Element Affinities: Weak=[Fire]
Status Resists: Sleep/Silence/Darkness (20%), Auto-Life (Immune)
Threaten Base Chance=0% (Immune)
Poison Damage=25%
Ability List: [Attack] [409Eh]
Forced Action: [Attack] [4000h]
Doom Counter=3
CTB Icon Type=Monster [14h]
Cannot be Captured
Model/Motion Base=mon/m010 (Wolf) [100Ah]
Sound Bank=m009 (Dingo) [1009h]
- Monster Loot -
Gil=16
AP Normal=2 Overkill=4
No Ronso Rage
Primary Item Drop: Chance=255/255
 COMMON Normal 1x Power Sphere [2046h]; Overkill 2x Power Sphere [2046h]
   RARE Normal 1x Power Sphere [2046h]; Overkill 2x Power Sphere [2046h]
Secondary Item Drop: Chance=0/255
Steal Item: Chance=255/255
 COMMON 1x Potion [2000h]
   RARE 1x Sleeping Powder [2025h]
Bribe Baseline: 4x Sleeping Powder [2025h]
Gear Drop: Chance=12/255
 Formula=1, Power=16, Crit=3%, Slots=0.25-2.0 [05h], Ability Rolls=1.125-2.0 [0Dh]
 Weapon AK: Piercing [800Bh] (Forced), Icestrike [8022h] (1/7), Lightningstrike [8026h] (1/7), Waterstrike [802Ah] (1/7), Distill Power [807Ch] (3/7), Firestrike [801Eh] (1/7)
        TYWLR: Icestrike [8022h] (1/7), Lightningstrike [8026h] (1/7), Waterstrike [802Ah] (1/7), Distill Power [807Ch] (3/7), Firestrike [801Eh] (1/7)
 Armor  TYAKWLR: Sleep Ward [8041h] (3/7), Silence Ward [8045h] (2/7), Magic Def +3% [806Eh] (2/7)
Zanmato Level: 1
Stolen Gil: Up to 100
Monster Arena Price (Unused): 24
- Localized Strings -
Name: Dingo
- Sensor Text -
Very nimble. Resistant to magic.
- Scan Text -
Very nimble and hard to hit.{\n}High magic defense.{\n}Must defeat it quickly{\n}or be attacked.{\n}Have {PC:00:TIDUS} beat it{\n}pronto.

--- src/main/resources/ffx_ps2/ffx/master/jppc/battle/mon/_m294/m294.bin ---
Fenrir [1126h]
- Script Code -
0000 w00init:         3C                                               return;
0001 w00main:         D85F00                                           call Common.halt [005Fh]();
0004                  3C                                               return;
0005 w00e02s40t01p27: AE0000 AE0000 D85D70                             call Battle.btlSetBindEffect [705Dh](p1=0 [00h], p2=0 [00h]);
000E                  3C                                               return;
000F w01init:         AE9E00 AE2E01 D8AB70                             Set [70ABh] Self.stat_motion_type [9Eh] = [motion_type_attack_run_01, motion_type_attack_miss, motion_type_attack_return, motion_type_avoid_move, motion_type_move_back_jump] [012Eh];
0018                  AEA300 AE0100 D8AB70                             Set [70ABh] Self.stat_direction_change_effect [A3h] = 1 [01h];
0021                  AEA400 AE0000 D8AB70                             Set [70ABh] Self.stat_direction_fix_flag [A4h] = 0 [00h];
002A                  AE0000 AF0000 D8B270                             Set [70B2h] Self.motion_attack_start_dist [00h] = 30.0 [41F00000h];
0033                  AE0100 AF0100 D8B270                             Set [70B2h] Self.motion_attack_offset [01h] = 0.0 [00h];
003C                  AE0800 AF0100 D8B270                             Set [70B2h] Self.motion_attack_height [08h] = 0.0 [00h];
0045                  AE0200 AF0200 D8B270                             Set [70B2h] Self.motion_move_backjump_dist [02h] = -1.0 [BF800000h];
004E                  AE0300 AF0300 D8B270                             Set [70B2h] Self.motion_run_speed [03h] = 3.0 [40400000h];
0057                  AE0400 AF0400 D8B270                             Set [70B2h] Self.motion_run_speed_return [04h] = 2.5 [40200000h];
0060                  AE0500 AF0100 D8B270                             Set [70B2h] Self.motion_run_speed_v0 [05h] = 0.0 [00h];
0069                  AE0600 AF0500 D8B270                             Set [70B2h] Self.motion_run_speed_acc [06h] = 0.4 [3ECCCCCDh];
0072                  AE0700 AF0600 D8B270                             Set [70B2h] Self.motion_weight [07h] = 60.0 [42700000h];
007B                  AEDA00 AE0600 D8AB70                             Set [70ABh] Self.stat_round [DAh] = 6 [06h];
0084                  AEDB00 AE0600 D8AB70                             Set [70ABh] Self.stat_round_return [DBh] = 6 [06h];
008D                  AEE600 AE2000 D8AB70                             Set [70ABh] Self.stat_attack_inc_speed [E6h] = 32 [20h];
0096                  AEE700 AE2000 D8AB70                             Set [70ABh] Self.stat_attack_dec_speed [E7h] = 32 [20h];
009F                  AEE400 AE0400 D8AB70                             Set [70ABh] Self.stat_idle2_prob [E4h] = 4 [04h];
00A8                  AEEA00 AE3C00 D8AB70                             Set [70ABh] Self.stat_motion_num [EAh] = 60 [3Ch];
00B1                  AE7C00 AE1000 D8AB70                             Set [70ABh] Self.stat_attack_normal_frame [7Ch] = 16 [10h];
00BA                  AE1601 AE1000 D8AB70                             Set [70ABh] Self.stat_attack_near_frame [0116h] = 16 [10h];
00C3                  AE2301 AE0C00 D8AB70                             Set [70ABh] Self.stat_attack_motion_frame [0123h] = 12 [0Ch];
00CC                  AEF3FF AE4F00 AE0300 D81870                      Set [7018h] Self [FFF3h].DeathAnimation [4Fh] = Fiend (Pyrefly dissipation) [03h];
00D8                  3C                                               return;
00D9 w01main:         D85F00                                           call Common.halt [005Fh]();
00DC                  3C                                               return;
00DD w01e02onTurn:    AEF2FF AE0800 B51E70 D70000                      Check (Battle.countChrOverlap [701Eh](group=FrontlineChars [FFF2h], btlChr=Valefor [08h])) else jump to j00 (0139)
00E9                  B5A900 AE0300 18 A00400                          Set priv0004 = Common.GetRandomValue [00A9h]() mod 3 [03h];
00F3                  9F0400 AE0000 06 D70100                          Check (priv0004 == 0 [00h]) else jump to j01 (011B)
00FD                  AEF2FF AE0400 AE0000 AE0000 B51070 A00300        Set priv0000 = Battle.findMatchingChr [7010h](group=FrontlineChars [FFF2h], property=isAlive [04h], unused=0 [00h], selector=Any/All [00h]);
010F                  9F0300 AEC140 D80B70                             call Battle.performCommand [700Bh](target=priv0000, command="Fangs of Chaos" [40C1h]);
0118                  B00200                                           Jump to j02 (0136)
011B j01:             AEF2FF AE0400 AE0000 AE0000 B51070 A00300        Set priv0000 = Battle.findMatchingChr [7010h](group=FrontlineChars [FFF2h], property=isAlive [04h], unused=0 [00h], selector=Any/All [00h]);
012D                  9F0300 AEC040 D80B70                             call Battle.performCommand [700Bh](target=priv0000, command="Fangs of Ruin" [40C0h]);
0136 j02:             B00300                                           Jump to j03 (0206)
0139 j00:             B5A900 AE0300 18 A00400                          Set priv0004 = Common.GetRandomValue [00A9h]() mod 3 [03h];
0143                  9F0400 AE0000 06 D70400                          Check (priv0004 == 0 [00h]) else jump to j04 (016B)
014D                  AEF2FF AE0400 AE0000 AE0000 B51070 A00300        Set priv0000 = Battle.findMatchingChr [7010h](group=FrontlineChars [FFF2h], property=isAlive [04h], unused=0 [00h], selector=Any/All [00h]);
015F                  9F0300 AEC240 D80B70                             call Battle.performCommand [700Bh](target=priv0000, command="Fangs of Hell" [40C2h]);
0168                  B00500                                           Jump to j05 (0206)
016B j04:             AEF2FF AE2900 AE0000 AE0000 B51070 A00300        Set priv0000 = Battle.findMatchingChr [7010h](group=FrontlineChars [FFF2h], property=StatusConfusion [29h], unused=0 [00h], selector=Any/All [00h]);
017D                  9F0300 AEFF00 06 D70600                          Check (priv0000 == Actor:None [FFh]) else jump to j06 (01B4)
0187                  AEF2FF AE0400 AE0000 AE0000 D81070               call Battle.findMatchingChr [7010h](group=FrontlineChars [FFF2h], property=isAlive [04h], unused=0 [00h], selector=Any/All [00h]);
0196                  AEF0FF AE0900 AE0000 AE0100 B51070 A00300        Set priv0000 = Battle.findMatchingChr [7010h](group=MatchingGroup [FFF0h], property=STR [09h], unused=0 [00h], selector=Highest [01h]);
01A8                  9F0300 AEC140 D80B70                             call Battle.performCommand [700Bh](target=priv0000, command="Fangs of Chaos" [40C1h]);
01B1                  B00700                                           Jump to j07 (0206)
01B4 j06:             AEF2FF AE2900 AE0000 AE8000 D81070               call Battle.findMatchingChr [7010h](group=FrontlineChars [FFF2h], property=StatusConfusion [29h], unused=0 [00h], selector=Not [80h]);
01C3                  AEF0FF AE0400 AE0000 AE0000 B51070 A00300        Set priv0000 = Battle.findMatchingChr [7010h](group=MatchingGroup [FFF0h], property=isAlive [04h], unused=0 [00h], selector=Any/All [00h]);
01D5                  9F0300 AEFF00 06 D70800                          Check (priv0000 == Actor:None [FFh]) else jump to j08 (01FD)
01DF                  AEF2FF AE0400 AE0000 AE0000 B51070 A00300        Set priv0000 = Battle.findMatchingChr [7010h](group=FrontlineChars [FFF2h], property=isAlive [04h], unused=0 [00h], selector=Any/All [00h]);
01F1                  9F0300 AEC040 D80B70                             call Battle.performCommand [700Bh](target=priv0000, command="Fangs of Ruin" [40C0h]);
01FA                  B00900                                           Jump to j09 (0206)
01FD j08:             9F0300 AEC040 D80B70                             call Battle.performCommand [700Bh](target=priv0000, command="Fangs of Ruin" [40C0h]);
0206 j03,j05,j07,j09: 3C                                               return;
0207 w01e03onHit:     3C                                               return;
0208 w01e04preTurn:   3C                                               return;
0209 w01e05onTargeted: 3C                                              return;
020A w01e06onDeath:   3C                                               return;
020B w02init:         3C                                               return;
020C w02main:         D85F00                                           call Common.halt [005Fh]();
020F                  3C                                               return;
0210 w02e02?BattleCam1A: D81660                                        call Camera.camResetMove [6016h]();
0213                  D83460                                           call Camera.refResetMove [6034h]();
0216                  AEEDFF AEFDFF B51E70 19 D70000                   Check (!Battle.countChrOverlap [701Eh](group=CHR_ALL_PLY2 [FFEDh], btlChr=TargetChrs [FFFDh])) else jump to j00 (022D)
0223                  AE0100 AE1C00 D83F70                             call Battle.camReq [703Fh](p1=1 [01h], p2=28 [1Ch]);
022C                  3C                                               return;
022D j00:             AEFEFF B57A70 AE0100 06 D70100                   Check (Battle.btlGetCalcResult [707Ah](btlChr=ActiveChrs [FFFEh]) == 1 [01h]) else jump to j01 (0244)
023A                  AE0100 AE1C00 D83F70                             call Battle.camReq [703Fh](p1=1 [01h], p2=28 [1Ch]);
0243                  3C                                               return;
0244 j01:             AEFEFF B5B070 A00000                             Set battleVar0094 = Battle.btlDistTargetFrame2 [70B0h](p1=-2 [FFFEh]);
024D j02:             AE0000 B58060 AE0300 18 59                       Set tmpI0 = Camera.camRand [6080h](p1=0 [00h]) mod 3 [03h];
0258                  67 9F0100 06 D60200                              (tmpI0 == battleVar00F4) -> j02 (024D)
0260                  67 A00100                                        Set battleVar00F4 = tmpI0;
0264                  9F0100 2C                                        switch battleVar00F4
0268                  B00300                                           Jump to j03 (0487)
026B j05:             AEFEFF AEF2FF B51E70 D70600                      Check (Battle.countChrOverlap [701Eh](group=ActiveChrs [FFFEh], btlChr=FrontlineChars [FFF2h])) else jump to j06 (0283)
0277                  AEFEFF B5A170 A00200                             Set battleVar0288 = Battle.dereferenceEnemy [70A1h](btlChr=ActiveChrs [FFFEh]);
0280                  B00700                                           Jump to j07 (028C)
0283 j06:             AEFDFF B5A170 A00200                             Set battleVar0288 = Battle.dereferenceEnemy [70A1h](btlChr=TargetChrs [FFFDh]);
028C j07:             9F0200 2C                                        switch battleVar0288
0290                  B00800                                           Jump to j08 (02AE)
0293 j0A:             AEF9FF AED800 AE0000 D81870                      Set [7018h] Character#2 [FFF9h].stat_visible_cam [D8h] = 0 [00h];
029F j0B:             AEFAFF AED800 AE0000 D81870                      Set [7018h] Character#1 [FFFAh].stat_visible_cam [D8h] = 0 [00h];
02AB                  B00900                                           Jump to j09 (02BE)
02AE j08:             AEF8FF 29 06 D60A00                              (Character#3 [FFF8h] == case) -> j0A (0293)
02B6                  AEF9FF 29 06 D60B00                              (Character#2 [FFF9h] == case) -> j0B (029F)
02BE j09:             B52470 2C                                        switch Battle.CurrentEncounter [7024h]
02C2                  B00C00                                           Jump to j0C (0385)
02C5 j0E,j0F,j10,j11,j12,j13,j14,j15,j16,j17,j18: B00D00               Jump to j0D (03E0)
02C8 j19:             AEFEFF AEF1FF B51E70 D71A00                      Check (Battle.countChrOverlap [701Eh](group=ActiveChrs [FFFEh], btlChr=AllMonsters [FFF1h])) else jump to j1A (02E0)
02D4                  AEFEFF B5A170 A00200                             Set battleVar0288 = Battle.dereferenceEnemy [70A1h](btlChr=ActiveChrs [FFFEh]);
02DD                  B01B00                                           Jump to j1B (02E9)
02E0 j1A:             AEFDFF B5A170 A00200                             Set battleVar0288 = Battle.dereferenceEnemy [70A1h](btlChr=TargetChrs [FFFDh]);
02E9 j1B:             9F0200 B52170 2C                                 switch Battle.dereferenceCharacter [7021h](btlChr=battleVar0288)
02F0                  B01C00                                           Jump to j1C (033F)
02F3 j1E,j1F,j20,j21,j22,j23,j24,j25: B01D00                           Jump to j1D (0382)
02F6 j26:             9F0200 2C                                        switch battleVar0288
02FA                  B02700                                           Jump to j27 (0324)
02FD j29:             AE1600 AED800 AE0000 D81870                      Set [7018h] Monster#02 [16h].stat_visible_cam [D8h] = 0 [00h];
0309 j2A:             AE1500 AED800 AE0000 D81870                      Set [7018h] Monster#01 [15h].stat_visible_cam [D8h] = 0 [00h];
0315 j2B:             AE1400 AED800 AE0000 D81870                      Set [7018h] Monster#00 [14h].stat_visible_cam [D8h] = 0 [00h];
0321                  B02800                                           Jump to j28 (033C)
0324 j27:             AE1700 29 06 D62900                              (Monster#03 [17h] == case) -> j29 (02FD)
032C                  AE1600 29 06 D62A00                              (Monster#02 [16h] == case) -> j2A (0309)
0334                  AE1500 29 06 D62B00                              (Monster#01 [15h] == case) -> j2B (0315)
033C j28:             B01D00                                           Jump to j1D (0382)
033F j1C:             AE7510 29 06 D61E00                              (Actors:MonsterType=m117 (Sinspawn Gui) [1075h] == case) -> j1E (02F3)
0347                  AEA010 29 06 D61F00                              (Actors:MonsterType=m160 (Head) [10A0h] == case) -> j1F (02F3)
034F                  AEA110 29 06 D62000                              (Actors:MonsterType=m161 (Arm) [10A1h] == case) -> j20 (02F3)
0357                  AE1811 29 06 D62100                              (Actors:MonsterType=m280 (Ultima Buster) [1118h] == case) -> j21 (02F3)
035F                  AE1011 29 06 D62200                              (Actors:MonsterType=m272 (Head) [1110h] == case) -> j22 (02F3)
0367                  AE1111 29 06 D62300                              (Actors:MonsterType=m273 (Arm) [1111h] == case) -> j23 (02F3)
036F                  AECA10 29 06 D62400                              (Actors:MonsterType=m202 (Magic Urn) [10CAh] == case) -> j24 (02F3)
0377                  AEFF10 29 06 D62500                              (Actors:MonsterType=m255 (Dummy) [10FFh] == case) -> j25 (02F3)
037F                  B02600                                           Jump to j26 (02F6)
0382 j1D:             B00D00                                           Jump to j0D (03E0)
0385 j0C:             AD0000 29 06 D60E00                              (kino02_00 [00DE0000h] == case) -> j0E (02C5)
038D                  AD0100 29 06 D60F00                              (kino03_10 [00DF000Ah] == case) -> j0F (02C5)
0395                  AD0200 29 06 D61000                              (stbv01_10 [0196000Ah] == case) -> j10 (02C5)
039D                  AD0300 29 06 D61100                              (mtgz02_00 [01E70000h] == case) -> j11 (02C5)
03A5                  AD0400 29 06 D61200                              (klyt01_00 [00840000h] == case) -> j12 (02C5)
03AD                  AD0500 29 06 D61300                              (dome02_00 [02050000h] == case) -> j13 (02C5)
03B5                  AD0600 29 06 D61400                              (stbv00_10 [0195000Ah] == case) -> j14 (02C5)
03BD                  AD0700 29 06 D61500                              (stbv00_11 [0195000Bh] == case) -> j15 (02C5)
03C5                  AD0800 29 06 D61600                              (ssbt00_00 [02350000h] == case) -> j16 (02C5)
03CD                  AD0900 29 06 D61700                              (ssbt01_00 [02360000h] == case) -> j17 (02C5)
03D5                  AD0A00 29 06 D61800                              (ssbt03_00 [02380000h] == case) -> j18 (02C5)
03DD                  B01900                                           Jump to j19 (02C8)
03E0 j0D:             AEFEFF AEFFFF AF0700 AF0800 AF0100 AF0900 D84160 call Camera.refSetBtlPolar [6041h](p1=-2 [FFFEh], p2=-1 [FFFFh], p3=74.00002 [42940003h], p4=19.999992 [419FFFFCh], p5=0.0 [00h], p6=-100.00015 [C2C80014h]);
03F5                  AEFEFF AEFFFF AF0A00 AF0C00 AF0100 AF0B00 D84460 call Camera.camSetBtlPolar2 [6044h](p1=-2 [FFFEh], p2=-1 [FFFFh], p3=11.999998 [413FFFFEh], p4=-99.0 [C2C60000h], p5=0.0 [00h], p6=207.99998 [434FFFFFh]);
040A                  AF0100 D83A60                                    call Camera.camSetRoll [603Ah](p1=0.0 [00h]);
0410                  AF0D00 D83B60                                    call Camera.camSetScrDpt [603Bh](p1=550.0 [44098000h]);
0416                  9F0000 D80000                                    call Common.wait [0000h](frames=battleVar0094);
041C                  AE1400 D80000                                    call Common.wait [0000h](frames=20 [14h]);
0422                  D81660                                           call Camera.camResetMove [6016h]();
0425                  D83460                                           call Camera.refResetMove [6034h]();
0428                  3C                                               return;
0429 j2C:             AEFEFF AEFFFF AF0E00 AF0800 AF0100 AF0F00 D84160 call Camera.refSetBtlPolar [6041h](p1=-2 [FFFEh], p2=-1 [FFFFh], p3=95.000046 [42BE0006h], p4=19.999992 [419FFFFCh], p5=0.0 [00h], p6=-1.33E-4 [B90B75EAh]);
043E                  AEFEFF AEFFFF AF1000 AF1100 AF0100 AF1200 D84460 call Camera.camSetBtlPolar2 [6044h](p1=-2 [FFFEh], p2=-1 [FFFFh], p3=119.99999 [42EFFFFFh], p4=18.999977 [4197FFF4h], p5=0.0 [00h], p6=179.0 [43330000h]);
0453                  AF0100 D83A60                                    call Camera.camSetRoll [603Ah](p1=0.0 [00h]);
0459                  AF1300 D83B60                                    call Camera.camSetScrDpt [603Bh](p1=824.0 [444E0000h]);
045F                  9F0000 AE0400 17 AE0300 16 D80000                call Common.wait [0000h](frames=(battleVar0094 / 4 [04h]) * 3 [03h]);
046D                  D81660                                           call Camera.camResetMove [6016h]();
0470                  AE1400 D80000                                    call Common.wait [0000h](frames=20 [14h]);
0476                  D83460                                           call Camera.refResetMove [6034h]();
0479                  3C                                               return;
047A j2D,j2E:         AE0100 AE1C00 D83F70                             call Battle.camReq [703Fh](p1=1 [01h], p2=28 [1Ch]);
0483                  3C                                               return;
0484                  B00400                                           Jump to j04 (04A7)
0487 j03:             AE0000 29 06 D60500                              (0 [00h] == case) -> j05 (026B)
048F                  AE0100 29 06 D62C00                              (1 [01h] == case) -> j2C (0429)
0497                  AE0200 29 06 D62D00                              (2 [02h] == case) -> j2D (047A)
049F                  AE0300 29 06 D62E00                              (3 [03h] == case) -> j2E (047A)
04A7 j04:             3C                                               return;
- Script Workers -
Script Code Start Address: 0194
Creator: nakazawa
3 Workers Total
w00: { Battle, Type=MotionHandler [01h], PurposeSlot=battleWorkerSlot:64 [40h], Entrypoints=3 [03h], Jumps=0 [00h], privateData addr=0000 len=00 }
w01: { Battle, Type=CombatHandler [02h], PurposeSlot=MonsterAi [3Dh], Entrypoints=7 [07h], Jumps=10 [0Ah], privateData addr=0000 len=08 }
w02: { Battle, Type=CameraHandler [00h], PurposeSlot=?BattleCameras [00h], Entrypoints=3 [03h], Jumps=47 [2Fh], privateData addr=0000 len=00 }
Variables (5 at offset 00F0)
Variable 00: battleVar0094 { battleVars[0094], type=int (int32) } [0000000152000094h]
Variable 01: battleVar00F4 { battleVars[00F4], type=int (int32) } [00000001520000F4h]
Variable 02: battleVar0288 { battleVars[0288], type=btlChr (int32) } [0000000152000288h]
Variable 03: priv+0000 { private[0000], type=btlChr (int32) } [0000000156000000h]
Variable 04: priv+0004 { private[0004], type=int (int32) } [0000000156000004h]
- Monster Stats -
HP=850000 MP=300 Overkill=99999
STR=73 DEF=40 MAG=12 MDF=165
AGI=200 LCK=30 EVA=60 ACC=200
Immune to Sensor, % Damage, Life (Instakill by Revival when Zombied), Scan?, Delay (All CTB Heal/Damage), Bribe
Element Affinities: Resist=[Fire, Ice, Thunder, Water]
Status Resists: Magic Break/Mental Break (99%), Death/Zombie/Petrify/Poison/Confuse/Berserk/Provoke/Power Break/Armor Break/Sleep/Silence/Darkness/Slow/Scan/Eject/Auto-Life (Immune)
Threaten Base Chance=0% (Immune)
Poison Damage=0%
Ability List: Fangs of Ruin [40C0h], Fangs of Chaos [40C1h], Fangs of Hell [40C2h]
Forced Action: Skip Turn
Doom Counter=200
CTB Icon Type=Boss (not numbered) [15h]
Cannot be Captured
Model/Motion Base=mon/m010 (Wolf) [100Ah]
Sound Bank=m010 (Mi’ihen Fang) [100Ah]
- Monster Loot -
Gil=0
AP Normal=10000 Overkill=10000
No Ronso Rage
Primary Item Drop: Chance=255/255
 COMMON Normal 1x Agility Sphere [205Bh]; Overkill 2x Agility Sphere [205Bh]
   RARE Normal 1x Dark Matter [2035h]; Overkill 2x Dark Matter [2035h]
Secondary Item Drop: Chance=0/255
Steal Item: Chance=255/255
 COMMON 2x Chocobo Feather [2036h]
   RARE 1x Chocobo Wing [2037h]
No Bribe
Gear Drop: Chance=255/255
 Formula=1, Power=16, Crit=6%, Slots=3.0-4.75 [10h], Ability Rolls=4.5-5.375 [28h]
 Weapon TYAKWLR: Deathstrike [802Eh] (Forced), Zombiestrike [8032h] (1/7), Silencestrike [8042h] (1/7), Stonestrike [8036h] (1/7), Darkstrike [8046h] (1/7), Poisonstrike [803Ah] (1/7), Slowstrike [804Ah] (1/7), Sleepstrike [803Eh] (1/7)
 Armor  TYAKWLR: Deathproof [8030h] (Forced), Sleepproof [8040h] (1/7), Zombieproof [8034h] (1/7), Silenceproof [8044h] (1/7), Stoneproof [8038h] (1/7), Darkproof [8048h] (1/7), Poisonproof [803Ch] (1/7), Slowproof [804Ch] (1/7)
Zanmato Level: 4
No Gil to steal
Monster Arena Price (Unused): 8000
- Localized Strings -
Name: Fenrir
- Sensor Text -
Immune to sensors.
- Scan Text -
Scan not available.
